/* HASH CRC-32:0x62b0fa29 */
/* Copyright (c) 2019-2022 Griefer@Work                                       *
 *                                                                            *
 * This software is provided 'as-is', without any express or implied          *
 * warranty. In no event will the authors be held liable for any damages      *
 * arising from the use of this software.                                     *
 *                                                                            *
 * Permission is granted to anyone to use this software for any purpose,      *
 * including commercial applications, and to alter it and redistribute it     *
 * freely, subject to the following restrictions:                             *
 *                                                                            *
 * 1. The origin of this software must not be misrepresented; you must not    *
 *    claim that you wrote the original software. If you use this software    *
 *    in a product, an acknowledgement (see the following) in the product     *
 *    documentation is required:                                              *
 *    Portions Copyright (c) 2019-2022 Griefer@Work                           *
 * 2. Altered source versions must be plainly marked as such, and must not be *
 *    misrepresented as being the original software.                          *
 * 3. This notice may not be removed or altered from any source distribution. *
 */
#ifndef GUARD_KERNEL_CORE_ARCH_I386_SYSCALL_WRAPPERS32_S
#define GUARD_KERNEL_CORE_ARCH_I386_SYSCALL_WRAPPERS32_S 1

#include <kernel/compiler.h>

#include <asm/cfi.h>
#include <kos/kernel/gdt.h>
#include <kos/kernel/paging.h>
#include <kernel/arch/syscall.h>

EXTERN(__asm32_bad_sysenter_extension)










/* errno_t restart_syscall(void) */
.section .text.x86.asm32_syscall_int80.restart_syscall
INTERN_WEAK_FUNCTION(__x86_asm32_int80_restart_syscall)
	.cfi_startproc simple
	.cfi_personality 0, x86_syscall_personality_asm32_int80
	.cfi_lsda 0, 0x0
	.cfi_iret_signal_frame
	.cfi_def_cfa %esp, 0
	pushl_cfi %ds
	.cfi_restore_iret_ds_or_offset -4
	pushl_cfi %es
	.cfi_restore_iret_es_or_offset -8
	pushl_cfi %fs
	.cfi_restore_iret_fs_or_offset -12
	movw   $(SEGMENT_USER_DATA_RPL), %ax
	movw   %ax, %ds
	movw   %ax, %es
	movw   $(SEGMENT_KERNEL_FSBASE), %ax
	movw   %ax, %fs
	pushl_cfi_r %ecx
	pushl_cfi_r %edx
	EXTERN(sys_restart_syscall)
	call   sys_restart_syscall
	popl_cfi_r %edx
	popl_cfi_r %ecx
	popl_cfi %fs
	.cfi_restore_iret_fs
	popl_cfi %es
	.cfi_restore_iret_es
	popl_cfi %ds
	.cfi_restore_iret_ds
	iret
	.cfi_endproc
END(__x86_asm32_int80_restart_syscall)

/* Terminate the calling thread (_NOT_ process!)
 * @param: exit_code: Thread exit code (as returned by `wait(2)') */
/* void exit(syscall_ulong_t exit_code) */
.section .text.x86.asm32_syscall_int80.exit
INTERN_WEAK_FUNCTION(__x86_asm32_int80_exit)
	.cfi_startproc simple
	.cfi_personality 0, x86_syscall_personality_asm32_int80
	.cfi_lsda 0, 0x1
	.cfi_iret_signal_frame
	.cfi_def_cfa %esp, 0
	pushl_cfi %ds
	.cfi_restore_iret_ds_or_offset -4
	pushl_cfi %es
	.cfi_restore_iret_es_or_offset -8
	pushl_cfi %fs
	.cfi_restore_iret_fs_or_offset -12
	movw   $(SEGMENT_USER_DATA_RPL), %ax
	movw   %ax, %ds
	movw   %ax, %es
	movw   $(SEGMENT_KERNEL_FSBASE), %ax
	movw   %ax, %fs
	pushl_cfi_r %ebx  /* Arg #0 */
	EXTERN(sys_exit)
	call   sys_exit
	.cfi_endproc
END(__x86_asm32_int80_exit)

/* Clone the calling thread into a second process and return twice, once
 * in  the parent process where this function returns the (non-zero) PID
 * of  the forked child process, and a  second time in the child process
 * itself, where ZERO(0) is returned.
 * The child then usually proceeds by calling `exec(2)' to replace its
 * application image with  that of another  program that the  original
 * parent can then `wait(2)' for. (s.a. `vfork(2)')
 * @return: 0 : You're the new process that was created
 * @return: * : The `return' value is the pid of your new child process */
/* pid_t fork(void) */
.section .text.x86.asm32_syscall_int80.fork
INTERN_WEAK_FUNCTION(__x86_asm32_int80_fork)
	.cfi_startproc simple
	.cfi_personality 0, x86_syscall_personality_asm32_int80
	.cfi_lsda 0, 0x2
	.cfi_iret_signal_frame
	.cfi_def_cfa %esp, 0
	pushl_cfi %ds
	.cfi_restore_iret_ds_or_offset -4
	pushl_cfi %es
	.cfi_restore_iret_es_or_offset -8
	pushl_cfi %fs
	.cfi_restore_iret_fs_or_offset -12
	movw   $(SEGMENT_USER_DATA_RPL), %ax
	movw   %ax, %ds
	movw   %ax, %es
	movw   $(SEGMENT_KERNEL_FSBASE), %ax
	movw   %ax, %fs
	pushl_cfi_r %ecx
	pushl_cfi_r %edx
	EXTERN(sys_fork)
	call   sys_fork
	popl_cfi_r %edx
	popl_cfi_r %ecx
	popl_cfi %fs
	.cfi_restore_iret_fs
	popl_cfi %es
	.cfi_restore_iret_es
	popl_cfi %ds
	.cfi_restore_iret_ds
	iret
	.cfi_endproc
END(__x86_asm32_int80_fork)

/* Read up to `bufsize' bytes from `fd' into `buf'
 * When  `fd' has the `O_NONBLOCK' flag set, only read as much data as was
 * available at the time the call was made, and throw `E_WOULDBLOCK' if no
 * data was available at the time.
 * @return: <= bufsize: The actual amount of read bytes
 * @return: 0         : EOF */
/* ssize_t read(fd_t fd, void *buf, size_t bufsize) */
.section .text.x86.asm32_syscall_int80.read
INTERN_WEAK_FUNCTION(__x86_asm32_int80_read)
	.cfi_startproc simple
	.cfi_personality 0, x86_syscall_personality_asm32_int80
	.cfi_lsda 0, 0x3
	.cfi_iret_signal_frame
	.cfi_def_cfa %esp, 0
	pushl_cfi %ds
	.cfi_restore_iret_ds_or_offset -4
	pushl_cfi %es
	.cfi_restore_iret_es_or_offset -8
	pushl_cfi %fs
	.cfi_restore_iret_fs_or_offset -12
	movw   $(SEGMENT_USER_DATA_RPL), %ax
	movw   %ax, %ds
	movw   %ax, %es
	movw   $(SEGMENT_KERNEL_FSBASE), %ax
	movw   %ax, %fs
	pushl_cfi_r %edx  /* Arg #2 */
	pushl_cfi_r %ecx  /* Arg #1 */
	pushl_cfi_r %ebx  /* Arg #0 */
	EXTERN(sys_read)
	call   sys_read
	popl_cfi_r %ebx
	popl_cfi_r %ecx
	popl_cfi_r %edx
	popl_cfi %fs
	.cfi_restore_iret_fs
	popl_cfi %es
	.cfi_restore_iret_es
	popl_cfi %ds
	.cfi_restore_iret_ds
	iret
	.cfi_endproc
END(__x86_asm32_int80_read)

/* Write up to `bufsize' bytes from `buf' into `fd'
 * When `fd' has the `O_NONBLOCK' flag set, only write as much data as
 * possible at the time the call was made, and throw `E_WOULDBLOCK' if
 * no data could be written at the time.
 * @return: <= bufsize: The actual amount of written bytes
 * @return: 0         : No more data can be written */
/* ssize_t write(fd_t fd, void const *buf, size_t bufsize) */
.section .text.x86.asm32_syscall_int80.write
INTERN_WEAK_FUNCTION(__x86_asm32_int80_write)
	.cfi_startproc simple
	.cfi_personality 0, x86_syscall_personality_asm32_int80
	.cfi_lsda 0, 0x4
	.cfi_iret_signal_frame
	.cfi_def_cfa %esp, 0
	pushl_cfi %ds
	.cfi_restore_iret_ds_or_offset -4
	pushl_cfi %es
	.cfi_restore_iret_es_or_offset -8
	pushl_cfi %fs
	.cfi_restore_iret_fs_or_offset -12
	movw   $(SEGMENT_USER_DATA_RPL), %ax
	movw   %ax, %ds
	movw   %ax, %es
	movw   $(SEGMENT_KERNEL_FSBASE), %ax
	movw   %ax, %fs
	pushl_cfi_r %edx  /* Arg #2 */
	pushl_cfi_r %ecx  /* Arg #1 */
	pushl_cfi_r %ebx  /* Arg #0 */
	EXTERN(sys_write)
	call   sys_write
	popl_cfi_r %ebx
	popl_cfi_r %ecx
	popl_cfi_r %edx
	popl_cfi %fs
	.cfi_restore_iret_fs
	popl_cfi %es
	.cfi_restore_iret_es
	popl_cfi %ds
	.cfi_restore_iret_ds
	iret
	.cfi_endproc
END(__x86_asm32_int80_write)

/* Open  a  new  file  handle  to  the  file  specified  by `filename'
 * When  `oflags & O_CREAT',   then  `mode'   specifies  the   initial
 * file  access  permissions with  which  the file  should  be opened.
 * On KOS, the returned handle can be anything, but is usually one of:
 *   - HANDLE_TYPE_PATH:       When `O_PATH' was given
 *   - HANDLE_TYPE_FILEHANDLE: For `S_IFREG' regular files
 *   - HANDLE_TYPE_FIFOHANDLE: For `S_IFIFO' pipe files
 *   - HANDLE_TYPE_DIRHANDLE:  For `S_IFDIR' directories
 *   - HANDLE_TYPE_MFILE:      The actual filesystem object (including device files)
 *   - *:                      Certain filesystem names can literally return anything, such
 *                             as `/proc/self/fd/1234',  which  is  more  like  `dup(1234)' */
/* fd_t open(char const *filename, oflag_t oflags, mode_t mode) */
.section .text.x86.asm32_syscall_int80.open
INTERN_WEAK_FUNCTION(__x86_asm32_int80_open)
	.cfi_startproc simple
	.cfi_personality 0, x86_syscall_personality_asm32_int80
	.cfi_lsda 0, 0x5
	.cfi_iret_signal_frame
	.cfi_def_cfa %esp, 0
	pushl_cfi %ds
	.cfi_restore_iret_ds_or_offset -4
	pushl_cfi %es
	.cfi_restore_iret_es_or_offset -8
	pushl_cfi %fs
	.cfi_restore_iret_fs_or_offset -12
	movw   $(SEGMENT_USER_DATA_RPL), %ax
	movw   %ax, %ds
	movw   %ax, %es
	movw   $(SEGMENT_KERNEL_FSBASE), %ax
	movw   %ax, %fs
	pushl_cfi_r %edx  /* Arg #2 */
	pushl_cfi_r %ecx  /* Arg #1 */
	pushl_cfi_r %ebx  /* Arg #0 */
	EXTERN(sys_open)
	call   sys_open
	popl_cfi_r %ebx
	popl_cfi_r %ecx
	popl_cfi_r %edx
	popl_cfi %fs
	.cfi_restore_iret_fs
	popl_cfi %es
	.cfi_restore_iret_es
	popl_cfi %ds
	.cfi_restore_iret_ds
	iret
	.cfi_endproc
END(__x86_asm32_int80_open)

/* Close a given file descriptor/handle `fd' */
/* errno_t close(fd_t fd) */
.section .text.x86.asm32_syscall_int80.close
INTERN_WEAK_FUNCTION(__x86_asm32_int80_close)
	.cfi_startproc simple
	.cfi_personality 0, x86_syscall_personality_asm32_int80
	.cfi_lsda 0, 0x6
	.cfi_iret_signal_frame
	.cfi_def_cfa %esp, 0
	pushl_cfi %ds
	.cfi_restore_iret_ds_or_offset -4
	pushl_cfi %es
	.cfi_restore_iret_es_or_offset -8
	pushl_cfi %fs
	.cfi_restore_iret_fs_or_offset -12
	movw   $(SEGMENT_USER_DATA_RPL), %ax
	movw   %ax, %ds
	movw   %ax, %es
	movw   $(SEGMENT_KERNEL_FSBASE), %ax
	movw   %ax, %fs
	pushl_cfi_r %ecx
	pushl_cfi_r %edx
	pushl_cfi_r %ebx  /* Arg #0 */
	EXTERN(sys_close)
	call   sys_close
	popl_cfi_r %ebx
	popl_cfi_r %edx
	popl_cfi_r %ecx
	popl_cfi %fs
	.cfi_restore_iret_fs
	popl_cfi %es
	.cfi_restore_iret_es
	popl_cfi %ds
	.cfi_restore_iret_ds
	iret
	.cfi_endproc
END(__x86_asm32_int80_close)

/* Wait for a child process:
 *  - `pid < -1':  Wait for any child process whose process group ID is `-PID'
 *  - `pid == -1': Wait for any child process
 *  - `pid == 0':  Wait for any child process whose process group ID is that of the caller
 *  - `pid > 0':   Wait for the child whose process ID is equal to `PID'
 * @param: options: Set of `WNOHANG | WUNTRACED | WCONTINUED' (as a KOS extension, `WNOWAIT' is also accepted) */
/* pid_t waitpid(pid_t pid, int32_t *stat_loc, syscall_ulong_t options) */
.section .text.x86.asm32_syscall_int80.waitpid
INTERN_WEAK_FUNCTION(__x86_asm32_int80_waitpid)
	.cfi_startproc simple
	.cfi_personality 0, x86_syscall_personality_asm32_int80
	.cfi_lsda 0, 0x7
	.cfi_iret_signal_frame
	.cfi_def_cfa %esp, 0
	pushl_cfi %ds
	.cfi_restore_iret_ds_or_offset -4
	pushl_cfi %es
	.cfi_restore_iret_es_or_offset -8
	pushl_cfi %fs
	.cfi_restore_iret_fs_or_offset -12
	movw   $(SEGMENT_USER_DATA_RPL), %ax
	movw   %ax, %ds
	movw   %ax, %es
	movw   $(SEGMENT_KERNEL_FSBASE), %ax
	movw   %ax, %fs
	pushl_cfi_r %edx  /* Arg #2 */
	pushl_cfi_r %ecx  /* Arg #1 */
	pushl_cfi_r %ebx  /* Arg #0 */
	EXTERN(sys_waitpid)
	call   sys_waitpid
	popl_cfi_r %ebx
	popl_cfi_r %ecx
	popl_cfi_r %edx
	popl_cfi %fs
	.cfi_restore_iret_fs
	popl_cfi %es
	.cfi_restore_iret_es
	popl_cfi %ds
	.cfi_restore_iret_ds
	iret
	.cfi_endproc
END(__x86_asm32_int80_waitpid)

/* fd_t creat(char const *filename, mode_t mode) */
.section .text.x86.asm32_syscall_int80.creat
INTERN_WEAK_FUNCTION(__x86_asm32_int80_creat)
	.cfi_startproc simple
	.cfi_personality 0, x86_syscall_personality_asm32_int80
	.cfi_lsda 0, 0x8
	.cfi_iret_signal_frame
	.cfi_def_cfa %esp, 0
	pushl_cfi %ds
	.cfi_restore_iret_ds_or_offset -4
	pushl_cfi %es
	.cfi_restore_iret_es_or_offset -8
	pushl_cfi %fs
	.cfi_restore_iret_fs_or_offset -12
	movw   $(SEGMENT_USER_DATA_RPL), %ax
	movw   %ax, %ds
	movw   %ax, %es
	movw   $(SEGMENT_KERNEL_FSBASE), %ax
	movw   %ax, %fs
	pushl_cfi_r %edx
	pushl_cfi_r %ecx  /* Arg #1 */
	pushl_cfi_r %ebx  /* Arg #0 */
	EXTERN(sys_creat)
	call   sys_creat
	popl_cfi_r %ebx
	popl_cfi_r %ecx
	popl_cfi_r %edx
	popl_cfi %fs
	.cfi_restore_iret_fs
	popl_cfi %es
	.cfi_restore_iret_es
	popl_cfi %ds
	.cfi_restore_iret_ds
	iret
	.cfi_endproc
END(__x86_asm32_int80_creat)

/* errno_t link(char const *existing_file, char const *link_file) */
.section .text.x86.asm32_syscall_int80.link
INTERN_WEAK_FUNCTION(__x86_asm32_int80_link)
	.cfi_startproc simple
	.cfi_personality 0, x86_syscall_personality_asm32_int80
	.cfi_lsda 0, 0x9
	.cfi_iret_signal_frame
	.cfi_def_cfa %esp, 0
	pushl_cfi %ds
	.cfi_restore_iret_ds_or_offset -4
	pushl_cfi %es
	.cfi_restore_iret_es_or_offset -8
	pushl_cfi %fs
	.cfi_restore_iret_fs_or_offset -12
	movw   $(SEGMENT_USER_DATA_RPL), %ax
	movw   %ax, %ds
	movw   %ax, %es
	movw   $(SEGMENT_KERNEL_FSBASE), %ax
	movw   %ax, %fs
	pushl_cfi_r %edx
	pushl_cfi_r %ecx  /* Arg #1 */
	pushl_cfi_r %ebx  /* Arg #0 */
	EXTERN(sys_link)
	call   sys_link
	popl_cfi_r %ebx
	popl_cfi_r %ecx
	popl_cfi_r %edx
	popl_cfi %fs
	.cfi_restore_iret_fs
	popl_cfi %es
	.cfi_restore_iret_es
	popl_cfi %ds
	.cfi_restore_iret_ds
	iret
	.cfi_endproc
END(__x86_asm32_int80_link)

/* errno_t unlink(char const *filename) */
.section .text.x86.asm32_syscall_int80.unlink
INTERN_WEAK_FUNCTION(__x86_asm32_int80_unlink)
	.cfi_startproc simple
	.cfi_personality 0, x86_syscall_personality_asm32_int80
	.cfi_lsda 0, 0xa
	.cfi_iret_signal_frame
	.cfi_def_cfa %esp, 0
	pushl_cfi %ds
	.cfi_restore_iret_ds_or_offset -4
	pushl_cfi %es
	.cfi_restore_iret_es_or_offset -8
	pushl_cfi %fs
	.cfi_restore_iret_fs_or_offset -12
	movw   $(SEGMENT_USER_DATA_RPL), %ax
	movw   %ax, %ds
	movw   %ax, %es
	movw   $(SEGMENT_KERNEL_FSBASE), %ax
	movw   %ax, %fs
	pushl_cfi_r %ecx
	pushl_cfi_r %edx
	pushl_cfi_r %ebx  /* Arg #0 */
	EXTERN(sys_unlink)
	call   sys_unlink
	popl_cfi_r %ebx
	popl_cfi_r %edx
	popl_cfi_r %ecx
	popl_cfi %fs
	.cfi_restore_iret_fs
	popl_cfi %es
	.cfi_restore_iret_es
	popl_cfi %ds
	.cfi_restore_iret_ds
	iret
	.cfi_endproc
END(__x86_asm32_int80_unlink)

/* Replace the calling  process with  the application  image referred  to by  `path' /  `file'
 * and execute it's `main()' method, passing the given `argv', and setting `environ' to `envp' */
/* errno_t execve(char const *path, __HYBRID_PTR32(char const) const *argv, __HYBRID_PTR32(char const) const *envp) */
.section .text.x86.asm32_syscall_int80.execve
INTERN_WEAK_FUNCTION(__x86_asm32_int80_execve)
	.cfi_startproc simple
	.cfi_personality 0, x86_syscall_personality_asm32_int80
	.cfi_lsda 0, 0xb
	.cfi_iret_signal_frame
	.cfi_def_cfa %esp, 0
	pushl_cfi %ds
	.cfi_restore_iret_ds_or_offset -4
	pushl_cfi %es
	.cfi_restore_iret_es_or_offset -8
	pushl_cfi %fs
	.cfi_restore_iret_fs_or_offset -12
	movw   $(SEGMENT_USER_DATA_RPL), %ax
	movw   %ax, %ds
	movw   %ax, %es
	movw   $(SEGMENT_KERNEL_FSBASE), %ax
	movw   %ax, %fs
	pushl_cfi_r %edx  /* Arg #2 */
	pushl_cfi_r %ecx  /* Arg #1 */
	pushl_cfi_r %ebx  /* Arg #0 */
	EXTERN(sys_execve)
	call   sys_execve
	popl_cfi_r %ebx
	popl_cfi_r %ecx
	popl_cfi_r %edx
	popl_cfi %fs
	.cfi_restore_iret_fs
	popl_cfi %es
	.cfi_restore_iret_es
	popl_cfi %ds
	.cfi_restore_iret_ds
	iret
	.cfi_endproc
END(__x86_asm32_int80_execve)

/* errno_t chdir(char const *path) */
.section .text.x86.asm32_syscall_int80.chdir
INTERN_WEAK_FUNCTION(__x86_asm32_int80_chdir)
	.cfi_startproc simple
	.cfi_personality 0, x86_syscall_personality_asm32_int80
	.cfi_lsda 0, 0xc
	.cfi_iret_signal_frame
	.cfi_def_cfa %esp, 0
	pushl_cfi %ds
	.cfi_restore_iret_ds_or_offset -4
	pushl_cfi %es
	.cfi_restore_iret_es_or_offset -8
	pushl_cfi %fs
	.cfi_restore_iret_fs_or_offset -12
	movw   $(SEGMENT_USER_DATA_RPL), %ax
	movw   %ax, %ds
	movw   %ax, %es
	movw   $(SEGMENT_KERNEL_FSBASE), %ax
	movw   %ax, %fs
	pushl_cfi_r %ecx
	pushl_cfi_r %edx
	pushl_cfi_r %ebx  /* Arg #0 */
	EXTERN(sys_chdir)
	call   sys_chdir
	popl_cfi_r %ebx
	popl_cfi_r %edx
	popl_cfi_r %ecx
	popl_cfi %fs
	.cfi_restore_iret_fs
	popl_cfi %es
	.cfi_restore_iret_es
	popl_cfi %ds
	.cfi_restore_iret_ds
	iret
	.cfi_endproc
END(__x86_asm32_int80_chdir)

/* int32_t time(int32_t *timer) */
.section .text.x86.asm32_syscall_int80.time
INTERN_WEAK_FUNCTION(__x86_asm32_int80_time)
	.cfi_startproc simple
	.cfi_personality 0, x86_syscall_personality_asm32_int80
	.cfi_lsda 0, 0xd
	.cfi_iret_signal_frame
	.cfi_def_cfa %esp, 0
	pushl_cfi %ds
	.cfi_restore_iret_ds_or_offset -4
	pushl_cfi %es
	.cfi_restore_iret_es_or_offset -8
	pushl_cfi %fs
	.cfi_restore_iret_fs_or_offset -12
	movw   $(SEGMENT_USER_DATA_RPL), %ax
	movw   %ax, %ds
	movw   %ax, %es
	movw   $(SEGMENT_KERNEL_FSBASE), %ax
	movw   %ax, %fs
	pushl_cfi_r %ecx
	pushl_cfi_r %edx
	pushl_cfi_r %ebx  /* Arg #0 */
	EXTERN(sys_time)
	call   sys_time
	popl_cfi_r %ebx
	popl_cfi_r %edx
	popl_cfi_r %ecx
	popl_cfi %fs
	.cfi_restore_iret_fs
	popl_cfi %es
	.cfi_restore_iret_es
	popl_cfi %ds
	.cfi_restore_iret_ds
	iret
	.cfi_endproc
END(__x86_asm32_int80_time)

/* errno_t mknod(char const *nodename, mode_t mode, dev_t dev) */
.section .text.x86.asm32_syscall_int80.mknod
INTERN_WEAK_FUNCTION(__x86_asm32_int80_mknod)
	.cfi_startproc simple
	.cfi_personality 0, x86_syscall_personality_asm32_int80
	.cfi_lsda 0, 0xe
	.cfi_iret_signal_frame
	.cfi_def_cfa %esp, 0
	pushl_cfi %ds
	.cfi_restore_iret_ds_or_offset -4
	pushl_cfi %es
	.cfi_restore_iret_es_or_offset -8
	pushl_cfi %fs
	.cfi_restore_iret_fs_or_offset -12
	movw   $(SEGMENT_USER_DATA_RPL), %ax
	movw   %ax, %ds
	movw   %ax, %es
	movw   $(SEGMENT_KERNEL_FSBASE), %ax
	movw   %ax, %fs
	pushl_cfi_r %edx  /* Arg #2 */
	pushl_cfi_r %ecx  /* Arg #1 */
	pushl_cfi_r %ebx  /* Arg #0 */
	EXTERN(sys_mknod)
	call   sys_mknod
	popl_cfi_r %ebx
	popl_cfi_r %ecx
	popl_cfi_r %edx
	popl_cfi %fs
	.cfi_restore_iret_fs
	popl_cfi %es
	.cfi_restore_iret_es
	popl_cfi %ds
	.cfi_restore_iret_ds
	iret
	.cfi_endproc
END(__x86_asm32_int80_mknod)

/* errno_t chmod(char const *filename, mode_t mode) */
.section .text.x86.asm32_syscall_int80.chmod
INTERN_WEAK_FUNCTION(__x86_asm32_int80_chmod)
	.cfi_startproc simple
	.cfi_personality 0, x86_syscall_personality_asm32_int80
	.cfi_lsda 0, 0xf
	.cfi_iret_signal_frame
	.cfi_def_cfa %esp, 0
	pushl_cfi %ds
	.cfi_restore_iret_ds_or_offset -4
	pushl_cfi %es
	.cfi_restore_iret_es_or_offset -8
	pushl_cfi %fs
	.cfi_restore_iret_fs_or_offset -12
	movw   $(SEGMENT_USER_DATA_RPL), %ax
	movw   %ax, %ds
	movw   %ax, %es
	movw   $(SEGMENT_KERNEL_FSBASE), %ax
	movw   %ax, %fs
	pushl_cfi_r %edx
	pushl_cfi_r %ecx  /* Arg #1 */
	pushl_cfi_r %ebx  /* Arg #0 */
	EXTERN(sys_chmod)
	call   sys_chmod
	popl_cfi_r %ebx
	popl_cfi_r %ecx
	popl_cfi_r %edx
	popl_cfi %fs
	.cfi_restore_iret_fs
	popl_cfi %es
	.cfi_restore_iret_es
	popl_cfi %ds
	.cfi_restore_iret_ds
	iret
	.cfi_endproc
END(__x86_asm32_int80_chmod)

/* errno_t lchown(char const *filename, uint16_t owner, uint16_t group) */
.section .text.x86.asm32_syscall_int80.lchown
INTERN_WEAK_FUNCTION(__x86_asm32_int80_lchown)
	.cfi_startproc simple
	.cfi_personality 0, x86_syscall_personality_asm32_int80
	.cfi_lsda 0, 0x10
	.cfi_iret_signal_frame
	.cfi_def_cfa %esp, 0
	pushl_cfi %ds
	.cfi_restore_iret_ds_or_offset -4
	pushl_cfi %es
	.cfi_restore_iret_es_or_offset -8
	pushl_cfi %fs
	.cfi_restore_iret_fs_or_offset -12
	movw   $(SEGMENT_USER_DATA_RPL), %ax
	movw   %ax, %ds
	movw   %ax, %es
	movw   $(SEGMENT_KERNEL_FSBASE), %ax
	movw   %ax, %fs
	pushl_cfi_r %edx  /* Arg #2 */
	pushl_cfi_r %ecx  /* Arg #1 */
	pushl_cfi_r %ebx  /* Arg #0 */
	EXTERN(sys_lchown)
	call   sys_lchown
	popl_cfi_r %ebx
	popl_cfi_r %ecx
	popl_cfi_r %edx
	popl_cfi %fs
	.cfi_restore_iret_fs
	popl_cfi %es
	.cfi_restore_iret_es
	popl_cfi %ds
	.cfi_restore_iret_ds
	iret
	.cfi_endproc
END(__x86_asm32_int80_lchown)

/* errno_t break(void) */
.section .text.x86.asm32_syscall_int80.break
INTERN_WEAK_FUNCTION(__x86_asm32_int80_break)
	.cfi_startproc simple
	.cfi_personality 0, x86_syscall_personality_asm32_int80
	.cfi_lsda 0, 0x11
	.cfi_iret_signal_frame
	.cfi_def_cfa %esp, 0
	pushl_cfi %ds
	.cfi_restore_iret_ds_or_offset -4
	pushl_cfi %es
	.cfi_restore_iret_es_or_offset -8
	pushl_cfi %fs
	.cfi_restore_iret_fs_or_offset -12
	movw   $(SEGMENT_USER_DATA_RPL), %ax
	movw   %ax, %ds
	movw   %ax, %es
	movw   $(SEGMENT_KERNEL_FSBASE), %ax
	movw   %ax, %fs
	pushl_cfi_r %ecx
	pushl_cfi_r %edx
	EXTERN(sys_break)
	call   sys_break
	popl_cfi_r %edx
	popl_cfi_r %ecx
	popl_cfi %fs
	.cfi_restore_iret_fs
	popl_cfi %es
	.cfi_restore_iret_es
	popl_cfi %ds
	.cfi_restore_iret_ds
	iret
	.cfi_endproc
END(__x86_asm32_int80_break)

/* errno_t oldstat(char const *filename, struct linux_oldstat *statbuf) */
.section .text.x86.asm32_syscall_int80.oldstat
INTERN_WEAK_FUNCTION(__x86_asm32_int80_oldstat)
	.cfi_startproc simple
	.cfi_personality 0, x86_syscall_personality_asm32_int80
	.cfi_lsda 0, 0x12
	.cfi_iret_signal_frame
	.cfi_def_cfa %esp, 0
	pushl_cfi %ds
	.cfi_restore_iret_ds_or_offset -4
	pushl_cfi %es
	.cfi_restore_iret_es_or_offset -8
	pushl_cfi %fs
	.cfi_restore_iret_fs_or_offset -12
	movw   $(SEGMENT_USER_DATA_RPL), %ax
	movw   %ax, %ds
	movw   %ax, %es
	movw   $(SEGMENT_KERNEL_FSBASE), %ax
	movw   %ax, %fs
	pushl_cfi_r %edx
	pushl_cfi_r %ecx  /* Arg #1 */
	pushl_cfi_r %ebx  /* Arg #0 */
	EXTERN(sys_oldstat)
	call   sys_oldstat
	popl_cfi_r %ebx
	popl_cfi_r %ecx
	popl_cfi_r %edx
	popl_cfi %fs
	.cfi_restore_iret_fs
	popl_cfi %es
	.cfi_restore_iret_es
	popl_cfi %ds
	.cfi_restore_iret_ds
	iret
	.cfi_endproc
END(__x86_asm32_int80_oldstat)

/* syscall_slong_t lseek(fd_t fd, syscall_slong_t offset, syscall_ulong_t whence) */
.section .text.x86.asm32_syscall_int80.lseek
INTERN_WEAK_FUNCTION(__x86_asm32_int80_lseek)
	.cfi_startproc simple
	.cfi_personality 0, x86_syscall_personality_asm32_int80
	.cfi_lsda 0, 0x13
	.cfi_iret_signal_frame
	.cfi_def_cfa %esp, 0
	pushl_cfi %ds
	.cfi_restore_iret_ds_or_offset -4
	pushl_cfi %es
	.cfi_restore_iret_es_or_offset -8
	pushl_cfi %fs
	.cfi_restore_iret_fs_or_offset -12
	movw   $(SEGMENT_USER_DATA_RPL), %ax
	movw   %ax, %ds
	movw   %ax, %es
	movw   $(SEGMENT_KERNEL_FSBASE), %ax
	movw   %ax, %fs
	pushl_cfi_r %edx  /* Arg #2 */
	pushl_cfi_r %ecx  /* Arg #1 */
	pushl_cfi_r %ebx  /* Arg #0 */
	EXTERN(sys_lseek)
	call   sys_lseek
	popl_cfi_r %ebx
	popl_cfi_r %ecx
	popl_cfi_r %edx
	popl_cfi %fs
	.cfi_restore_iret_fs
	popl_cfi %es
	.cfi_restore_iret_es
	popl_cfi %ds
	.cfi_restore_iret_ds
	iret
	.cfi_endproc
END(__x86_asm32_int80_lseek)

/* pid_t getpid(void) */
.section .text.x86.asm32_syscall_int80.getpid
INTERN_WEAK_FUNCTION(__x86_asm32_int80_getpid)
	.cfi_startproc simple
	.cfi_personality 0, x86_syscall_personality_asm32_int80
	.cfi_lsda 0, 0x14
	.cfi_iret_signal_frame
	.cfi_def_cfa %esp, 0
	pushl_cfi %ds
	.cfi_restore_iret_ds_or_offset -4
	pushl_cfi %es
	.cfi_restore_iret_es_or_offset -8
	pushl_cfi %fs
	.cfi_restore_iret_fs_or_offset -12
	movw   $(SEGMENT_USER_DATA_RPL), %ax
	movw   %ax, %ds
	movw   %ax, %es
	movw   $(SEGMENT_KERNEL_FSBASE), %ax
	movw   %ax, %fs
	pushl_cfi_r %ecx
	pushl_cfi_r %edx
	EXTERN(sys_getpid)
	call   sys_getpid
	popl_cfi_r %edx
	popl_cfi_r %ecx
	popl_cfi %fs
	.cfi_restore_iret_fs
	popl_cfi %es
	.cfi_restore_iret_es
	popl_cfi %ds
	.cfi_restore_iret_ds
	iret
	.cfi_endproc
END(__x86_asm32_int80_getpid)

/* errno_t mount(char const *special_file, char const *dir, char const *fstype, syscall_ulong_t mountflags, void const *data) */
.section .text.x86.asm32_syscall_int80.mount
INTERN_WEAK_FUNCTION(__x86_asm32_int80_mount)
	.cfi_startproc simple
	.cfi_personality 0, x86_syscall_personality_asm32_int80
	.cfi_lsda 0, 0x15
	.cfi_iret_signal_frame
	.cfi_def_cfa %esp, 0
	pushl_cfi %ds
	.cfi_restore_iret_ds_or_offset -4
	pushl_cfi %es
	.cfi_restore_iret_es_or_offset -8
	pushl_cfi %fs
	.cfi_restore_iret_fs_or_offset -12
	movw   $(SEGMENT_USER_DATA_RPL), %ax
	movw   %ax, %ds
	movw   %ax, %es
	movw   $(SEGMENT_KERNEL_FSBASE), %ax
	movw   %ax, %fs
	pushl_cfi_r %edi  /* Arg #4 */
	pushl_cfi_r %esi  /* Arg #3 */
	pushl_cfi_r %edx  /* Arg #2 */
	pushl_cfi_r %ecx  /* Arg #1 */
	pushl_cfi_r %ebx  /* Arg #0 */
	EXTERN(sys_mount)
	call   sys_mount
	popl_cfi_r %ebx
	popl_cfi_r %ecx
	popl_cfi_r %edx
	addl   $(8), %esp
	.cfi_adjust_cfa_offset -8
	popl_cfi %fs
	.cfi_restore_iret_fs
	popl_cfi %es
	.cfi_restore_iret_es
	popl_cfi %ds
	.cfi_restore_iret_ds
	iret
	.cfi_endproc
END(__x86_asm32_int80_mount)

/* errno_t umount(char const *special_file) */
.section .text.x86.asm32_syscall_int80.umount
INTERN_WEAK_FUNCTION(__x86_asm32_int80_umount)
	.cfi_startproc simple
	.cfi_personality 0, x86_syscall_personality_asm32_int80
	.cfi_lsda 0, 0x16
	.cfi_iret_signal_frame
	.cfi_def_cfa %esp, 0
	pushl_cfi %ds
	.cfi_restore_iret_ds_or_offset -4
	pushl_cfi %es
	.cfi_restore_iret_es_or_offset -8
	pushl_cfi %fs
	.cfi_restore_iret_fs_or_offset -12
	movw   $(SEGMENT_USER_DATA_RPL), %ax
	movw   %ax, %ds
	movw   %ax, %es
	movw   $(SEGMENT_KERNEL_FSBASE), %ax
	movw   %ax, %fs
	pushl_cfi_r %ecx
	pushl_cfi_r %edx
	pushl_cfi_r %ebx  /* Arg #0 */
	EXTERN(sys_umount)
	call   sys_umount
	popl_cfi_r %ebx
	popl_cfi_r %edx
	popl_cfi_r %ecx
	popl_cfi %fs
	.cfi_restore_iret_fs
	popl_cfi %es
	.cfi_restore_iret_es
	popl_cfi %ds
	.cfi_restore_iret_ds
	iret
	.cfi_endproc
END(__x86_asm32_int80_umount)

/* >> setuid(2)
 * Set the UID of the calling thread (this is the so-called ~real~ UID)
 * @return: 0 : Success
 * @throw: E_INSUFFICIENT_RIGHTS:CAP_SETUID: [...] */
/* errno_t setuid(uint16_t uid) */
.section .text.x86.asm32_syscall_int80.setuid
INTERN_WEAK_FUNCTION(__x86_asm32_int80_setuid)
	.cfi_startproc simple
	.cfi_personality 0, x86_syscall_personality_asm32_int80
	.cfi_lsda 0, 0x17
	.cfi_iret_signal_frame
	.cfi_def_cfa %esp, 0
	pushl_cfi %ds
	.cfi_restore_iret_ds_or_offset -4
	pushl_cfi %es
	.cfi_restore_iret_es_or_offset -8
	pushl_cfi %fs
	.cfi_restore_iret_fs_or_offset -12
	movw   $(SEGMENT_USER_DATA_RPL), %ax
	movw   %ax, %ds
	movw   %ax, %es
	movw   $(SEGMENT_KERNEL_FSBASE), %ax
	movw   %ax, %fs
	pushl_cfi_r %ecx
	pushl_cfi_r %edx
	pushl_cfi_r %ebx  /* Arg #0 */
	EXTERN(sys_setuid)
	call   sys_setuid
	popl_cfi_r %ebx
	popl_cfi_r %edx
	popl_cfi_r %ecx
	popl_cfi %fs
	.cfi_restore_iret_fs
	popl_cfi %es
	.cfi_restore_iret_es
	popl_cfi %ds
	.cfi_restore_iret_ds
	iret
	.cfi_endproc
END(__x86_asm32_int80_setuid)

/* >> getuid(2)
 * @return: * : The UID of the calling thread (this is the so-called ~real~ UID) */
/* uint16_t getuid(void) */
.section .text.x86.asm32_syscall_int80.getuid
INTERN_WEAK_FUNCTION(__x86_asm32_int80_getuid)
	.cfi_startproc simple
	.cfi_personality 0, x86_syscall_personality_asm32_int80
	.cfi_lsda 0, 0x18
	.cfi_iret_signal_frame
	.cfi_def_cfa %esp, 0
	pushl_cfi %ds
	.cfi_restore_iret_ds_or_offset -4
	pushl_cfi %es
	.cfi_restore_iret_es_or_offset -8
	pushl_cfi %fs
	.cfi_restore_iret_fs_or_offset -12
	movw   $(SEGMENT_USER_DATA_RPL), %ax
	movw   %ax, %ds
	movw   %ax, %es
	movw   $(SEGMENT_KERNEL_FSBASE), %ax
	movw   %ax, %fs
	pushl_cfi_r %ecx
	pushl_cfi_r %edx
	EXTERN(sys_getuid)
	call   sys_getuid
	popl_cfi_r %edx
	popl_cfi_r %ecx
	popl_cfi %fs
	.cfi_restore_iret_fs
	popl_cfi %es
	.cfi_restore_iret_es
	popl_cfi %ds
	.cfi_restore_iret_ds
	iret
	.cfi_endproc
END(__x86_asm32_int80_getuid)

/* errno_t stime(time32_t const *t) */
.section .text.x86.asm32_syscall_int80.stime
INTERN_WEAK_FUNCTION(__x86_asm32_int80_stime)
	.cfi_startproc simple
	.cfi_personality 0, x86_syscall_personality_asm32_int80
	.cfi_lsda 0, 0x19
	.cfi_iret_signal_frame
	.cfi_def_cfa %esp, 0
	pushl_cfi %ds
	.cfi_restore_iret_ds_or_offset -4
	pushl_cfi %es
	.cfi_restore_iret_es_or_offset -8
	pushl_cfi %fs
	.cfi_restore_iret_fs_or_offset -12
	movw   $(SEGMENT_USER_DATA_RPL), %ax
	movw   %ax, %ds
	movw   %ax, %es
	movw   $(SEGMENT_KERNEL_FSBASE), %ax
	movw   %ax, %fs
	pushl_cfi_r %ecx
	pushl_cfi_r %edx
	pushl_cfi_r %ebx  /* Arg #0 */
	EXTERN(sys_stime)
	call   sys_stime
	popl_cfi_r %ebx
	popl_cfi_r %edx
	popl_cfi_r %ecx
	popl_cfi %fs
	.cfi_restore_iret_fs
	popl_cfi %es
	.cfi_restore_iret_es
	popl_cfi %ds
	.cfi_restore_iret_ds
	iret
	.cfi_endproc
END(__x86_asm32_int80_stime)

/* syscall_slong_t ptrace(syscall_ulong_t request, pid_t pid, void *addr, void *data) */
.section .text.x86.asm32_syscall_int80.ptrace
INTERN_WEAK_FUNCTION(__x86_asm32_int80_ptrace)
	.cfi_startproc simple
	.cfi_personality 0, x86_syscall_personality_asm32_int80
	.cfi_lsda 0, 0x1a
	.cfi_iret_signal_frame
	.cfi_def_cfa %esp, 0
	pushl_cfi %ds
	.cfi_restore_iret_ds_or_offset -4
	pushl_cfi %es
	.cfi_restore_iret_es_or_offset -8
	pushl_cfi %fs
	.cfi_restore_iret_fs_or_offset -12
	movw   $(SEGMENT_USER_DATA_RPL), %ax
	movw   %ax, %ds
	movw   %ax, %es
	movw   $(SEGMENT_KERNEL_FSBASE), %ax
	movw   %ax, %fs
	pushl_cfi_r %esi  /* Arg #3 */
	pushl_cfi_r %edx  /* Arg #2 */
	pushl_cfi_r %ecx  /* Arg #1 */
	pushl_cfi_r %ebx  /* Arg #0 */
	EXTERN(sys_ptrace)
	call   sys_ptrace
	popl_cfi_r %ebx
	popl_cfi_r %ecx
	popl_cfi_r %edx
	popl_cfi_r %esi
	popl_cfi %fs
	.cfi_restore_iret_fs
	popl_cfi %es
	.cfi_restore_iret_es
	popl_cfi %ds
	.cfi_restore_iret_ds
	iret
	.cfi_endproc
END(__x86_asm32_int80_ptrace)

/* syscall_ulong_t alarm(syscall_ulong_t seconds) */
.section .text.x86.asm32_syscall_int80.alarm
INTERN_WEAK_FUNCTION(__x86_asm32_int80_alarm)
	.cfi_startproc simple
	.cfi_personality 0, x86_syscall_personality_asm32_int80
	.cfi_lsda 0, 0x1b
	.cfi_iret_signal_frame
	.cfi_def_cfa %esp, 0
	pushl_cfi %ds
	.cfi_restore_iret_ds_or_offset -4
	pushl_cfi %es
	.cfi_restore_iret_es_or_offset -8
	pushl_cfi %fs
	.cfi_restore_iret_fs_or_offset -12
	movw   $(SEGMENT_USER_DATA_RPL), %ax
	movw   %ax, %ds
	movw   %ax, %es
	movw   $(SEGMENT_KERNEL_FSBASE), %ax
	movw   %ax, %fs
	pushl_cfi_r %ecx
	pushl_cfi_r %edx
	pushl_cfi_r %ebx  /* Arg #0 */
	EXTERN(sys_alarm)
	call   sys_alarm
	popl_cfi_r %ebx
	popl_cfi_r %edx
	popl_cfi_r %ecx
	popl_cfi %fs
	.cfi_restore_iret_fs
	popl_cfi %es
	.cfi_restore_iret_es
	popl_cfi %ds
	.cfi_restore_iret_ds
	iret
	.cfi_endproc
END(__x86_asm32_int80_alarm)

/* errno_t oldfstat(fd_t fd, struct linux_oldstat *statbuf) */
.section .text.x86.asm32_syscall_int80.oldfstat
INTERN_WEAK_FUNCTION(__x86_asm32_int80_oldfstat)
	.cfi_startproc simple
	.cfi_personality 0, x86_syscall_personality_asm32_int80
	.cfi_lsda 0, 0x1c
	.cfi_iret_signal_frame
	.cfi_def_cfa %esp, 0
	pushl_cfi %ds
	.cfi_restore_iret_ds_or_offset -4
	pushl_cfi %es
	.cfi_restore_iret_es_or_offset -8
	pushl_cfi %fs
	.cfi_restore_iret_fs_or_offset -12
	movw   $(SEGMENT_USER_DATA_RPL), %ax
	movw   %ax, %ds
	movw   %ax, %es
	movw   $(SEGMENT_KERNEL_FSBASE), %ax
	movw   %ax, %fs
	pushl_cfi_r %edx
	pushl_cfi_r %ecx  /* Arg #1 */
	pushl_cfi_r %ebx  /* Arg #0 */
	EXTERN(sys_oldfstat)
	call   sys_oldfstat
	popl_cfi_r %ebx
	popl_cfi_r %ecx
	popl_cfi_r %edx
	popl_cfi %fs
	.cfi_restore_iret_fs
	popl_cfi %es
	.cfi_restore_iret_es
	popl_cfi %ds
	.cfi_restore_iret_ds
	iret
	.cfi_endproc
END(__x86_asm32_int80_oldfstat)

/* Same as `select(0, NULL, NULL, NULL, NULL)' */
/* errno_t pause(void) */
.section .text.x86.asm32_syscall_int80.pause
INTERN_WEAK_FUNCTION(__x86_asm32_int80_pause)
	.cfi_startproc simple
	.cfi_personality 0, x86_syscall_personality_asm32_int80
	.cfi_lsda 0, 0x1d
	.cfi_iret_signal_frame
	.cfi_def_cfa %esp, 0
	pushl_cfi %ds
	.cfi_restore_iret_ds_or_offset -4
	pushl_cfi %es
	.cfi_restore_iret_es_or_offset -8
	pushl_cfi %fs
	.cfi_restore_iret_fs_or_offset -12
	movw   $(SEGMENT_USER_DATA_RPL), %ax
	movw   %ax, %ds
	movw   %ax, %es
	movw   $(SEGMENT_KERNEL_FSBASE), %ax
	movw   %ax, %fs
	pushl_cfi_r %ecx
	pushl_cfi_r %edx
	EXTERN(sys_pause)
	call   sys_pause
	popl_cfi_r %edx
	popl_cfi_r %ecx
	popl_cfi %fs
	.cfi_restore_iret_fs
	popl_cfi %es
	.cfi_restore_iret_es
	popl_cfi %ds
	.cfi_restore_iret_ds
	iret
	.cfi_endproc
END(__x86_asm32_int80_pause)

/* @param: times: When NULL, set the current time */
/* errno_t utime(char const *filename, struct utimbufx32 const *times) */
.section .text.x86.asm32_syscall_int80.utime
INTERN_WEAK_FUNCTION(__x86_asm32_int80_utime)
	.cfi_startproc simple
	.cfi_personality 0, x86_syscall_personality_asm32_int80
	.cfi_lsda 0, 0x1e
	.cfi_iret_signal_frame
	.cfi_def_cfa %esp, 0
	pushl_cfi %ds
	.cfi_restore_iret_ds_or_offset -4
	pushl_cfi %es
	.cfi_restore_iret_es_or_offset -8
	pushl_cfi %fs
	.cfi_restore_iret_fs_or_offset -12
	movw   $(SEGMENT_USER_DATA_RPL), %ax
	movw   %ax, %ds
	movw   %ax, %es
	movw   $(SEGMENT_KERNEL_FSBASE), %ax
	movw   %ax, %fs
	pushl_cfi_r %edx
	pushl_cfi_r %ecx  /* Arg #1 */
	pushl_cfi_r %ebx  /* Arg #0 */
	EXTERN(sys_utime)
	call   sys_utime
	popl_cfi_r %ebx
	popl_cfi_r %ecx
	popl_cfi_r %edx
	popl_cfi %fs
	.cfi_restore_iret_fs
	popl_cfi %es
	.cfi_restore_iret_es
	popl_cfi %ds
	.cfi_restore_iret_ds
	iret
	.cfi_endproc
END(__x86_asm32_int80_utime)

/* errno_t stty(void) */
.section .text.x86.asm32_syscall_int80.stty
INTERN_WEAK_FUNCTION(__x86_asm32_int80_stty)
	.cfi_startproc simple
	.cfi_personality 0, x86_syscall_personality_asm32_int80
	.cfi_lsda 0, 0x1f
	.cfi_iret_signal_frame
	.cfi_def_cfa %esp, 0
	pushl_cfi %ds
	.cfi_restore_iret_ds_or_offset -4
	pushl_cfi %es
	.cfi_restore_iret_es_or_offset -8
	pushl_cfi %fs
	.cfi_restore_iret_fs_or_offset -12
	movw   $(SEGMENT_USER_DATA_RPL), %ax
	movw   %ax, %ds
	movw   %ax, %es
	movw   $(SEGMENT_KERNEL_FSBASE), %ax
	movw   %ax, %fs
	pushl_cfi_r %ecx
	pushl_cfi_r %edx
	EXTERN(sys_stty)
	call   sys_stty
	popl_cfi_r %edx
	popl_cfi_r %ecx
	popl_cfi %fs
	.cfi_restore_iret_fs
	popl_cfi %es
	.cfi_restore_iret_es
	popl_cfi %ds
	.cfi_restore_iret_ds
	iret
	.cfi_endproc
END(__x86_asm32_int80_stty)

/* errno_t gtty(void) */
.section .text.x86.asm32_syscall_int80.gtty
INTERN_WEAK_FUNCTION(__x86_asm32_int80_gtty)
	.cfi_startproc simple
	.cfi_personality 0, x86_syscall_personality_asm32_int80
	.cfi_lsda 0, 0x20
	.cfi_iret_signal_frame
	.cfi_def_cfa %esp, 0
	pushl_cfi %ds
	.cfi_restore_iret_ds_or_offset -4
	pushl_cfi %es
	.cfi_restore_iret_es_or_offset -8
	pushl_cfi %fs
	.cfi_restore_iret_fs_or_offset -12
	movw   $(SEGMENT_USER_DATA_RPL), %ax
	movw   %ax, %ds
	movw   %ax, %es
	movw   $(SEGMENT_KERNEL_FSBASE), %ax
	movw   %ax, %fs
	pushl_cfi_r %ecx
	pushl_cfi_r %edx
	EXTERN(sys_gtty)
	call   sys_gtty
	popl_cfi_r %edx
	popl_cfi_r %ecx
	popl_cfi %fs
	.cfi_restore_iret_fs
	popl_cfi %es
	.cfi_restore_iret_es
	popl_cfi %ds
	.cfi_restore_iret_ds
	iret
	.cfi_endproc
END(__x86_asm32_int80_gtty)

/* @param: type: Set of `R_OK|W_OK|X_OK' or `F_OK' */
/* errno_t access(char const *filename, syscall_ulong_t type) */
.section .text.x86.asm32_syscall_int80.access
INTERN_WEAK_FUNCTION(__x86_asm32_int80_access)
	.cfi_startproc simple
	.cfi_personality 0, x86_syscall_personality_asm32_int80
	.cfi_lsda 0, 0x21
	.cfi_iret_signal_frame
	.cfi_def_cfa %esp, 0
	pushl_cfi %ds
	.cfi_restore_iret_ds_or_offset -4
	pushl_cfi %es
	.cfi_restore_iret_es_or_offset -8
	pushl_cfi %fs
	.cfi_restore_iret_fs_or_offset -12
	movw   $(SEGMENT_USER_DATA_RPL), %ax
	movw   %ax, %ds
	movw   %ax, %es
	movw   $(SEGMENT_KERNEL_FSBASE), %ax
	movw   %ax, %fs
	pushl_cfi_r %edx
	pushl_cfi_r %ecx  /* Arg #1 */
	pushl_cfi_r %ebx  /* Arg #0 */
	EXTERN(sys_access)
	call   sys_access
	popl_cfi_r %ebx
	popl_cfi_r %ecx
	popl_cfi_r %edx
	popl_cfi %fs
	.cfi_restore_iret_fs
	popl_cfi %es
	.cfi_restore_iret_es
	popl_cfi %ds
	.cfi_restore_iret_ds
	iret
	.cfi_endproc
END(__x86_asm32_int80_access)

/* errno_t nice(syscall_slong_t inc) */
.section .text.x86.asm32_syscall_int80.nice
INTERN_WEAK_FUNCTION(__x86_asm32_int80_nice)
	.cfi_startproc simple
	.cfi_personality 0, x86_syscall_personality_asm32_int80
	.cfi_lsda 0, 0x22
	.cfi_iret_signal_frame
	.cfi_def_cfa %esp, 0
	pushl_cfi %ds
	.cfi_restore_iret_ds_or_offset -4
	pushl_cfi %es
	.cfi_restore_iret_es_or_offset -8
	pushl_cfi %fs
	.cfi_restore_iret_fs_or_offset -12
	movw   $(SEGMENT_USER_DATA_RPL), %ax
	movw   %ax, %ds
	movw   %ax, %es
	movw   $(SEGMENT_KERNEL_FSBASE), %ax
	movw   %ax, %fs
	pushl_cfi_r %ecx
	pushl_cfi_r %edx
	pushl_cfi_r %ebx  /* Arg #0 */
	EXTERN(sys_nice)
	call   sys_nice
	popl_cfi_r %ebx
	popl_cfi_r %edx
	popl_cfi_r %ecx
	popl_cfi %fs
	.cfi_restore_iret_fs
	popl_cfi %es
	.cfi_restore_iret_es
	popl_cfi %ds
	.cfi_restore_iret_ds
	iret
	.cfi_endproc
END(__x86_asm32_int80_nice)

/* errno_t ftime(struct timebx32 *tp) */
.section .text.x86.asm32_syscall_int80.ftime
INTERN_WEAK_FUNCTION(__x86_asm32_int80_ftime)
	.cfi_startproc simple
	.cfi_personality 0, x86_syscall_personality_asm32_int80
	.cfi_lsda 0, 0x23
	.cfi_iret_signal_frame
	.cfi_def_cfa %esp, 0
	pushl_cfi %ds
	.cfi_restore_iret_ds_or_offset -4
	pushl_cfi %es
	.cfi_restore_iret_es_or_offset -8
	pushl_cfi %fs
	.cfi_restore_iret_fs_or_offset -12
	movw   $(SEGMENT_USER_DATA_RPL), %ax
	movw   %ax, %ds
	movw   %ax, %es
	movw   $(SEGMENT_KERNEL_FSBASE), %ax
	movw   %ax, %fs
	pushl_cfi_r %ecx
	pushl_cfi_r %edx
	pushl_cfi_r %ebx  /* Arg #0 */
	EXTERN(sys_ftime)
	call   sys_ftime
	popl_cfi_r %ebx
	popl_cfi_r %edx
	popl_cfi_r %ecx
	popl_cfi %fs
	.cfi_restore_iret_fs
	popl_cfi %es
	.cfi_restore_iret_es
	popl_cfi %ds
	.cfi_restore_iret_ds
	iret
	.cfi_endproc
END(__x86_asm32_int80_ftime)

/* errno_t sync(void) */
.section .text.x86.asm32_syscall_int80.sync
INTERN_WEAK_FUNCTION(__x86_asm32_int80_sync)
	.cfi_startproc simple
	.cfi_personality 0, x86_syscall_personality_asm32_int80
	.cfi_lsda 0, 0x24
	.cfi_iret_signal_frame
	.cfi_def_cfa %esp, 0
	pushl_cfi %ds
	.cfi_restore_iret_ds_or_offset -4
	pushl_cfi %es
	.cfi_restore_iret_es_or_offset -8
	pushl_cfi %fs
	.cfi_restore_iret_fs_or_offset -12
	movw   $(SEGMENT_USER_DATA_RPL), %ax
	movw   %ax, %ds
	movw   %ax, %es
	movw   $(SEGMENT_KERNEL_FSBASE), %ax
	movw   %ax, %fs
	pushl_cfi_r %ecx
	pushl_cfi_r %edx
	EXTERN(sys_sync)
	call   sys_sync
	popl_cfi_r %edx
	popl_cfi_r %ecx
	popl_cfi %fs
	.cfi_restore_iret_fs
	popl_cfi %es
	.cfi_restore_iret_es
	popl_cfi %ds
	.cfi_restore_iret_ds
	iret
	.cfi_endproc
END(__x86_asm32_int80_sync)

/* errno_t kill(pid_t pid, signo_t signo) */
.section .text.x86.asm32_syscall_int80.kill
INTERN_WEAK_FUNCTION(__x86_asm32_int80_kill)
	.cfi_startproc simple
	.cfi_personality 0, x86_syscall_personality_asm32_int80
	.cfi_lsda 0, 0x25
	.cfi_iret_signal_frame
	.cfi_def_cfa %esp, 0
	pushl_cfi %ds
	.cfi_restore_iret_ds_or_offset -4
	pushl_cfi %es
	.cfi_restore_iret_es_or_offset -8
	pushl_cfi %fs
	.cfi_restore_iret_fs_or_offset -12
	movw   $(SEGMENT_USER_DATA_RPL), %ax
	movw   %ax, %ds
	movw   %ax, %es
	movw   $(SEGMENT_KERNEL_FSBASE), %ax
	movw   %ax, %fs
	pushl_cfi_r %edx
	pushl_cfi_r %ecx  /* Arg #1 */
	pushl_cfi_r %ebx  /* Arg #0 */
	EXTERN(sys_kill)
	call   sys_kill
	popl_cfi_r %ebx
	popl_cfi_r %ecx
	popl_cfi_r %edx
	popl_cfi %fs
	.cfi_restore_iret_fs
	popl_cfi %es
	.cfi_restore_iret_es
	popl_cfi %ds
	.cfi_restore_iret_ds
	iret
	.cfi_endproc
END(__x86_asm32_int80_kill)

/* errno_t rename(char const *oldname, char const *newname_or_path) */
.section .text.x86.asm32_syscall_int80.rename
INTERN_WEAK_FUNCTION(__x86_asm32_int80_rename)
	.cfi_startproc simple
	.cfi_personality 0, x86_syscall_personality_asm32_int80
	.cfi_lsda 0, 0x26
	.cfi_iret_signal_frame
	.cfi_def_cfa %esp, 0
	pushl_cfi %ds
	.cfi_restore_iret_ds_or_offset -4
	pushl_cfi %es
	.cfi_restore_iret_es_or_offset -8
	pushl_cfi %fs
	.cfi_restore_iret_fs_or_offset -12
	movw   $(SEGMENT_USER_DATA_RPL), %ax
	movw   %ax, %ds
	movw   %ax, %es
	movw   $(SEGMENT_KERNEL_FSBASE), %ax
	movw   %ax, %fs
	pushl_cfi_r %edx
	pushl_cfi_r %ecx  /* Arg #1 */
	pushl_cfi_r %ebx  /* Arg #0 */
	EXTERN(sys_rename)
	call   sys_rename
	popl_cfi_r %ebx
	popl_cfi_r %ecx
	popl_cfi_r %edx
	popl_cfi %fs
	.cfi_restore_iret_fs
	popl_cfi %es
	.cfi_restore_iret_es
	popl_cfi %ds
	.cfi_restore_iret_ds
	iret
	.cfi_endproc
END(__x86_asm32_int80_rename)

/* errno_t mkdir(char const *pathname, mode_t mode) */
.section .text.x86.asm32_syscall_int80.mkdir
INTERN_WEAK_FUNCTION(__x86_asm32_int80_mkdir)
	.cfi_startproc simple
	.cfi_personality 0, x86_syscall_personality_asm32_int80
	.cfi_lsda 0, 0x27
	.cfi_iret_signal_frame
	.cfi_def_cfa %esp, 0
	pushl_cfi %ds
	.cfi_restore_iret_ds_or_offset -4
	pushl_cfi %es
	.cfi_restore_iret_es_or_offset -8
	pushl_cfi %fs
	.cfi_restore_iret_fs_or_offset -12
	movw   $(SEGMENT_USER_DATA_RPL), %ax
	movw   %ax, %ds
	movw   %ax, %es
	movw   $(SEGMENT_KERNEL_FSBASE), %ax
	movw   %ax, %fs
	pushl_cfi_r %edx
	pushl_cfi_r %ecx  /* Arg #1 */
	pushl_cfi_r %ebx  /* Arg #0 */
	EXTERN(sys_mkdir)
	call   sys_mkdir
	popl_cfi_r %ebx
	popl_cfi_r %ecx
	popl_cfi_r %edx
	popl_cfi %fs
	.cfi_restore_iret_fs
	popl_cfi %es
	.cfi_restore_iret_es
	popl_cfi %ds
	.cfi_restore_iret_ds
	iret
	.cfi_endproc
END(__x86_asm32_int80_mkdir)

/* errno_t rmdir(char const *path) */
.section .text.x86.asm32_syscall_int80.rmdir
INTERN_WEAK_FUNCTION(__x86_asm32_int80_rmdir)
	.cfi_startproc simple
	.cfi_personality 0, x86_syscall_personality_asm32_int80
	.cfi_lsda 0, 0x28
	.cfi_iret_signal_frame
	.cfi_def_cfa %esp, 0
	pushl_cfi %ds
	.cfi_restore_iret_ds_or_offset -4
	pushl_cfi %es
	.cfi_restore_iret_es_or_offset -8
	pushl_cfi %fs
	.cfi_restore_iret_fs_or_offset -12
	movw   $(SEGMENT_USER_DATA_RPL), %ax
	movw   %ax, %ds
	movw   %ax, %es
	movw   $(SEGMENT_KERNEL_FSBASE), %ax
	movw   %ax, %fs
	pushl_cfi_r %ecx
	pushl_cfi_r %edx
	pushl_cfi_r %ebx  /* Arg #0 */
	EXTERN(sys_rmdir)
	call   sys_rmdir
	popl_cfi_r %ebx
	popl_cfi_r %edx
	popl_cfi_r %ecx
	popl_cfi %fs
	.cfi_restore_iret_fs
	popl_cfi %es
	.cfi_restore_iret_es
	popl_cfi %ds
	.cfi_restore_iret_ds
	iret
	.cfi_endproc
END(__x86_asm32_int80_rmdir)

/* fd_t dup(fd_t fd) */
.section .text.x86.asm32_syscall_int80.dup
INTERN_WEAK_FUNCTION(__x86_asm32_int80_dup)
	.cfi_startproc simple
	.cfi_personality 0, x86_syscall_personality_asm32_int80
	.cfi_lsda 0, 0x29
	.cfi_iret_signal_frame
	.cfi_def_cfa %esp, 0
	pushl_cfi %ds
	.cfi_restore_iret_ds_or_offset -4
	pushl_cfi %es
	.cfi_restore_iret_es_or_offset -8
	pushl_cfi %fs
	.cfi_restore_iret_fs_or_offset -12
	movw   $(SEGMENT_USER_DATA_RPL), %ax
	movw   %ax, %ds
	movw   %ax, %es
	movw   $(SEGMENT_KERNEL_FSBASE), %ax
	movw   %ax, %fs
	pushl_cfi_r %ecx
	pushl_cfi_r %edx
	pushl_cfi_r %ebx  /* Arg #0 */
	EXTERN(sys_dup)
	call   sys_dup
	popl_cfi_r %ebx
	popl_cfi_r %edx
	popl_cfi_r %ecx
	popl_cfi %fs
	.cfi_restore_iret_fs
	popl_cfi %es
	.cfi_restore_iret_es
	popl_cfi %ds
	.cfi_restore_iret_ds
	iret
	.cfi_endproc
END(__x86_asm32_int80_dup)

/* errno_t pipe(fd_t[2] pipedes) */
.section .text.x86.asm32_syscall_int80.pipe
INTERN_WEAK_FUNCTION(__x86_asm32_int80_pipe)
	.cfi_startproc simple
	.cfi_personality 0, x86_syscall_personality_asm32_int80
	.cfi_lsda 0, 0x2a
	.cfi_iret_signal_frame
	.cfi_def_cfa %esp, 0
	pushl_cfi %ds
	.cfi_restore_iret_ds_or_offset -4
	pushl_cfi %es
	.cfi_restore_iret_es_or_offset -8
	pushl_cfi %fs
	.cfi_restore_iret_fs_or_offset -12
	movw   $(SEGMENT_USER_DATA_RPL), %ax
	movw   %ax, %ds
	movw   %ax, %es
	movw   $(SEGMENT_KERNEL_FSBASE), %ax
	movw   %ax, %fs
	pushl_cfi_r %ecx
	pushl_cfi_r %edx
	pushl_cfi_r %ebx  /* Arg #0 */
	EXTERN(sys_pipe)
	call   sys_pipe
	popl_cfi_r %ebx
	popl_cfi_r %edx
	popl_cfi_r %ecx
	popl_cfi %fs
	.cfi_restore_iret_fs
	popl_cfi %es
	.cfi_restore_iret_es
	popl_cfi %ds
	.cfi_restore_iret_ds
	iret
	.cfi_endproc
END(__x86_asm32_int80_pipe)

/* clock_t times(struct tmsx32 *buf) */
.section .text.x86.asm32_syscall_int80.times
INTERN_WEAK_FUNCTION(__x86_asm32_int80_times)
	.cfi_startproc simple
	.cfi_personality 0, x86_syscall_personality_asm32_int80
	.cfi_lsda 0, 0x2b
	.cfi_iret_signal_frame
	.cfi_def_cfa %esp, 0
	pushl_cfi %ds
	.cfi_restore_iret_ds_or_offset -4
	pushl_cfi %es
	.cfi_restore_iret_es_or_offset -8
	pushl_cfi %fs
	.cfi_restore_iret_fs_or_offset -12
	movw   $(SEGMENT_USER_DATA_RPL), %ax
	movw   %ax, %ds
	movw   %ax, %es
	movw   $(SEGMENT_KERNEL_FSBASE), %ax
	movw   %ax, %fs
	pushl_cfi_r %ecx
	pushl_cfi_r %edx
	pushl_cfi_r %ebx  /* Arg #0 */
	EXTERN(sys_times)
	call   sys_times
	popl_cfi_r %ebx
	popl_cfi_r %edx
	popl_cfi_r %ecx
	popl_cfi %fs
	.cfi_restore_iret_fs
	popl_cfi %es
	.cfi_restore_iret_es
	popl_cfi %ds
	.cfi_restore_iret_ds
	iret
	.cfi_endproc
END(__x86_asm32_int80_times)

/* errno_t prof(void) */
.section .text.x86.asm32_syscall_int80.prof
INTERN_WEAK_FUNCTION(__x86_asm32_int80_prof)
	.cfi_startproc simple
	.cfi_personality 0, x86_syscall_personality_asm32_int80
	.cfi_lsda 0, 0x2c
	.cfi_iret_signal_frame
	.cfi_def_cfa %esp, 0
	pushl_cfi %ds
	.cfi_restore_iret_ds_or_offset -4
	pushl_cfi %es
	.cfi_restore_iret_es_or_offset -8
	pushl_cfi %fs
	.cfi_restore_iret_fs_or_offset -12
	movw   $(SEGMENT_USER_DATA_RPL), %ax
	movw   %ax, %ds
	movw   %ax, %es
	movw   $(SEGMENT_KERNEL_FSBASE), %ax
	movw   %ax, %fs
	pushl_cfi_r %ecx
	pushl_cfi_r %edx
	EXTERN(sys_prof)
	call   sys_prof
	popl_cfi_r %edx
	popl_cfi_r %ecx
	popl_cfi %fs
	.cfi_restore_iret_fs
	popl_cfi %es
	.cfi_restore_iret_es
	popl_cfi %ds
	.cfi_restore_iret_ds
	iret
	.cfi_endproc
END(__x86_asm32_int80_prof)

/* errno_t brk(void *addr) */
.section .text.x86.asm32_syscall_int80.brk
INTERN_WEAK_FUNCTION(__x86_asm32_int80_brk)
	.cfi_startproc simple
	.cfi_personality 0, x86_syscall_personality_asm32_int80
	.cfi_lsda 0, 0x2d
	.cfi_iret_signal_frame
	.cfi_def_cfa %esp, 0
	pushl_cfi %ds
	.cfi_restore_iret_ds_or_offset -4
	pushl_cfi %es
	.cfi_restore_iret_es_or_offset -8
	pushl_cfi %fs
	.cfi_restore_iret_fs_or_offset -12
	movw   $(SEGMENT_USER_DATA_RPL), %ax
	movw   %ax, %ds
	movw   %ax, %es
	movw   $(SEGMENT_KERNEL_FSBASE), %ax
	movw   %ax, %fs
	pushl_cfi_r %ecx
	pushl_cfi_r %edx
	pushl_cfi_r %ebx  /* Arg #0 */
	EXTERN(sys_brk)
	call   sys_brk
	popl_cfi_r %ebx
	popl_cfi_r %edx
	popl_cfi_r %ecx
	popl_cfi %fs
	.cfi_restore_iret_fs
	popl_cfi %es
	.cfi_restore_iret_es
	popl_cfi %ds
	.cfi_restore_iret_ds
	iret
	.cfi_endproc
END(__x86_asm32_int80_brk)

/* >> setgid(2)
 * Set the GID of the calling thread (this is the so-called ~real~ GID)
 * @return: 0 : Success
 * @throw: E_INSUFFICIENT_RIGHTS:CAP_SETGID: [...] */
/* errno_t setgid(uint16_t gid) */
.section .text.x86.asm32_syscall_int80.setgid
INTERN_WEAK_FUNCTION(__x86_asm32_int80_setgid)
	.cfi_startproc simple
	.cfi_personality 0, x86_syscall_personality_asm32_int80
	.cfi_lsda 0, 0x2e
	.cfi_iret_signal_frame
	.cfi_def_cfa %esp, 0
	pushl_cfi %ds
	.cfi_restore_iret_ds_or_offset -4
	pushl_cfi %es
	.cfi_restore_iret_es_or_offset -8
	pushl_cfi %fs
	.cfi_restore_iret_fs_or_offset -12
	movw   $(SEGMENT_USER_DATA_RPL), %ax
	movw   %ax, %ds
	movw   %ax, %es
	movw   $(SEGMENT_KERNEL_FSBASE), %ax
	movw   %ax, %fs
	pushl_cfi_r %ecx
	pushl_cfi_r %edx
	pushl_cfi_r %ebx  /* Arg #0 */
	EXTERN(sys_setgid)
	call   sys_setgid
	popl_cfi_r %ebx
	popl_cfi_r %edx
	popl_cfi_r %ecx
	popl_cfi %fs
	.cfi_restore_iret_fs
	popl_cfi %es
	.cfi_restore_iret_es
	popl_cfi %ds
	.cfi_restore_iret_ds
	iret
	.cfi_endproc
END(__x86_asm32_int80_setgid)

/* >> getgid(2)
 * @return: * : The GID of the calling thread (this is the so-called ~real~ GID) */
/* uint16_t getgid(void) */
.section .text.x86.asm32_syscall_int80.getgid
INTERN_WEAK_FUNCTION(__x86_asm32_int80_getgid)
	.cfi_startproc simple
	.cfi_personality 0, x86_syscall_personality_asm32_int80
	.cfi_lsda 0, 0x2f
	.cfi_iret_signal_frame
	.cfi_def_cfa %esp, 0
	pushl_cfi %ds
	.cfi_restore_iret_ds_or_offset -4
	pushl_cfi %es
	.cfi_restore_iret_es_or_offset -8
	pushl_cfi %fs
	.cfi_restore_iret_fs_or_offset -12
	movw   $(SEGMENT_USER_DATA_RPL), %ax
	movw   %ax, %ds
	movw   %ax, %es
	movw   $(SEGMENT_KERNEL_FSBASE), %ax
	movw   %ax, %fs
	pushl_cfi_r %ecx
	pushl_cfi_r %edx
	EXTERN(sys_getgid)
	call   sys_getgid
	popl_cfi_r %edx
	popl_cfi_r %ecx
	popl_cfi %fs
	.cfi_restore_iret_fs
	popl_cfi %es
	.cfi_restore_iret_es
	popl_cfi %ds
	.cfi_restore_iret_ds
	iret
	.cfi_endproc
END(__x86_asm32_int80_getgid)

/* __sigactionx32_sa_handler_t signal(signo_t signo, __sigactionx32_sa_handler_t handler) */
.section .text.x86.asm32_syscall_int80.signal
INTERN_WEAK_FUNCTION(__x86_asm32_int80_signal)
	.cfi_startproc simple
	.cfi_personality 0, x86_syscall_personality_asm32_int80
	.cfi_lsda 0, 0x30
	.cfi_iret_signal_frame
	.cfi_def_cfa %esp, 0
	pushl_cfi %ds
	.cfi_restore_iret_ds_or_offset -4
	pushl_cfi %es
	.cfi_restore_iret_es_or_offset -8
	pushl_cfi %fs
	.cfi_restore_iret_fs_or_offset -12
	movw   $(SEGMENT_USER_DATA_RPL), %ax
	movw   %ax, %ds
	movw   %ax, %es
	movw   $(SEGMENT_KERNEL_FSBASE), %ax
	movw   %ax, %fs
	pushl_cfi_r %edx
	pushl_cfi_r %ecx  /* Arg #1 */
	pushl_cfi_r %ebx  /* Arg #0 */
	EXTERN(sys_signal)
	call   sys_signal
	popl_cfi_r %ebx
	popl_cfi_r %ecx
	popl_cfi_r %edx
	popl_cfi %fs
	.cfi_restore_iret_fs
	popl_cfi %es
	.cfi_restore_iret_es
	popl_cfi %ds
	.cfi_restore_iret_ds
	iret
	.cfi_endproc
END(__x86_asm32_int80_signal)

/* >> geteuid(2)
 * @return: * : The   effective  UID  of  the  calling  thread.
 *              This is the one used for most permission checks */
/* uint16_t geteuid(void) */
.section .text.x86.asm32_syscall_int80.geteuid
INTERN_WEAK_FUNCTION(__x86_asm32_int80_geteuid)
	.cfi_startproc simple
	.cfi_personality 0, x86_syscall_personality_asm32_int80
	.cfi_lsda 0, 0x31
	.cfi_iret_signal_frame
	.cfi_def_cfa %esp, 0
	pushl_cfi %ds
	.cfi_restore_iret_ds_or_offset -4
	pushl_cfi %es
	.cfi_restore_iret_es_or_offset -8
	pushl_cfi %fs
	.cfi_restore_iret_fs_or_offset -12
	movw   $(SEGMENT_USER_DATA_RPL), %ax
	movw   %ax, %ds
	movw   %ax, %es
	movw   $(SEGMENT_KERNEL_FSBASE), %ax
	movw   %ax, %fs
	pushl_cfi_r %ecx
	pushl_cfi_r %edx
	EXTERN(sys_geteuid)
	call   sys_geteuid
	popl_cfi_r %edx
	popl_cfi_r %ecx
	popl_cfi %fs
	.cfi_restore_iret_fs
	popl_cfi %es
	.cfi_restore_iret_es
	popl_cfi %ds
	.cfi_restore_iret_ds
	iret
	.cfi_endproc
END(__x86_asm32_int80_geteuid)

/* >> getegid(2)
 * @return: * : The   effective  GID  of  the  calling  thread.
 *              This is the one used for most permission checks */
/* uint16_t getegid(void) */
.section .text.x86.asm32_syscall_int80.getegid
INTERN_WEAK_FUNCTION(__x86_asm32_int80_getegid)
	.cfi_startproc simple
	.cfi_personality 0, x86_syscall_personality_asm32_int80
	.cfi_lsda 0, 0x32
	.cfi_iret_signal_frame
	.cfi_def_cfa %esp, 0
	pushl_cfi %ds
	.cfi_restore_iret_ds_or_offset -4
	pushl_cfi %es
	.cfi_restore_iret_es_or_offset -8
	pushl_cfi %fs
	.cfi_restore_iret_fs_or_offset -12
	movw   $(SEGMENT_USER_DATA_RPL), %ax
	movw   %ax, %ds
	movw   %ax, %es
	movw   $(SEGMENT_KERNEL_FSBASE), %ax
	movw   %ax, %fs
	pushl_cfi_r %ecx
	pushl_cfi_r %edx
	EXTERN(sys_getegid)
	call   sys_getegid
	popl_cfi_r %edx
	popl_cfi_r %ecx
	popl_cfi %fs
	.cfi_restore_iret_fs
	popl_cfi %es
	.cfi_restore_iret_es
	popl_cfi %ds
	.cfi_restore_iret_ds
	iret
	.cfi_endproc
END(__x86_asm32_int80_getegid)

/* errno_t acct(char const *filename) */
.section .text.x86.asm32_syscall_int80.acct
INTERN_WEAK_FUNCTION(__x86_asm32_int80_acct)
	.cfi_startproc simple
	.cfi_personality 0, x86_syscall_personality_asm32_int80
	.cfi_lsda 0, 0x33
	.cfi_iret_signal_frame
	.cfi_def_cfa %esp, 0
	pushl_cfi %ds
	.cfi_restore_iret_ds_or_offset -4
	pushl_cfi %es
	.cfi_restore_iret_es_or_offset -8
	pushl_cfi %fs
	.cfi_restore_iret_fs_or_offset -12
	movw   $(SEGMENT_USER_DATA_RPL), %ax
	movw   %ax, %ds
	movw   %ax, %es
	movw   $(SEGMENT_KERNEL_FSBASE), %ax
	movw   %ax, %fs
	pushl_cfi_r %ecx
	pushl_cfi_r %edx
	pushl_cfi_r %ebx  /* Arg #0 */
	EXTERN(sys_acct)
	call   sys_acct
	popl_cfi_r %ebx
	popl_cfi_r %edx
	popl_cfi_r %ecx
	popl_cfi %fs
	.cfi_restore_iret_fs
	popl_cfi %es
	.cfi_restore_iret_es
	popl_cfi %ds
	.cfi_restore_iret_ds
	iret
	.cfi_endproc
END(__x86_asm32_int80_acct)

/* errno_t umount2(char const *special_file, syscall_ulong_t flags) */
.section .text.x86.asm32_syscall_int80.umount2
INTERN_WEAK_FUNCTION(__x86_asm32_int80_umount2)
	.cfi_startproc simple
	.cfi_personality 0, x86_syscall_personality_asm32_int80
	.cfi_lsda 0, 0x34
	.cfi_iret_signal_frame
	.cfi_def_cfa %esp, 0
	pushl_cfi %ds
	.cfi_restore_iret_ds_or_offset -4
	pushl_cfi %es
	.cfi_restore_iret_es_or_offset -8
	pushl_cfi %fs
	.cfi_restore_iret_fs_or_offset -12
	movw   $(SEGMENT_USER_DATA_RPL), %ax
	movw   %ax, %ds
	movw   %ax, %es
	movw   $(SEGMENT_KERNEL_FSBASE), %ax
	movw   %ax, %fs
	pushl_cfi_r %edx
	pushl_cfi_r %ecx  /* Arg #1 */
	pushl_cfi_r %ebx  /* Arg #0 */
	EXTERN(sys_umount2)
	call   sys_umount2
	popl_cfi_r %ebx
	popl_cfi_r %ecx
	popl_cfi_r %edx
	popl_cfi %fs
	.cfi_restore_iret_fs
	popl_cfi %es
	.cfi_restore_iret_es
	popl_cfi %ds
	.cfi_restore_iret_ds
	iret
	.cfi_endproc
END(__x86_asm32_int80_umount2)

/* errno_t lock(void) */
.section .text.x86.asm32_syscall_int80.lock
INTERN_WEAK_FUNCTION(__x86_asm32_int80_lock)
	.cfi_startproc simple
	.cfi_personality 0, x86_syscall_personality_asm32_int80
	.cfi_lsda 0, 0x35
	.cfi_iret_signal_frame
	.cfi_def_cfa %esp, 0
	pushl_cfi %ds
	.cfi_restore_iret_ds_or_offset -4
	pushl_cfi %es
	.cfi_restore_iret_es_or_offset -8
	pushl_cfi %fs
	.cfi_restore_iret_fs_or_offset -12
	movw   $(SEGMENT_USER_DATA_RPL), %ax
	movw   %ax, %ds
	movw   %ax, %es
	movw   $(SEGMENT_KERNEL_FSBASE), %ax
	movw   %ax, %fs
	pushl_cfi_r %ecx
	pushl_cfi_r %edx
	EXTERN(sys_lock)
	call   sys_lock
	popl_cfi_r %edx
	popl_cfi_r %ecx
	popl_cfi %fs
	.cfi_restore_iret_fs
	popl_cfi %es
	.cfi_restore_iret_es
	popl_cfi %ds
	.cfi_restore_iret_ds
	iret
	.cfi_endproc
END(__x86_asm32_int80_lock)

/* syscall_slong_t ioctl(fd_t fd, ioctl_t command, void *arg) */
.section .text.x86.asm32_syscall_int80.ioctl
INTERN_WEAK_FUNCTION(__x86_asm32_int80_ioctl)
	.cfi_startproc simple
	.cfi_personality 0, x86_syscall_personality_asm32_int80
	.cfi_lsda 0, 0x36
	.cfi_iret_signal_frame
	.cfi_def_cfa %esp, 0
	pushl_cfi %ds
	.cfi_restore_iret_ds_or_offset -4
	pushl_cfi %es
	.cfi_restore_iret_es_or_offset -8
	pushl_cfi %fs
	.cfi_restore_iret_fs_or_offset -12
	movw   $(SEGMENT_USER_DATA_RPL), %ax
	movw   %ax, %ds
	movw   %ax, %es
	movw   $(SEGMENT_KERNEL_FSBASE), %ax
	movw   %ax, %fs
	pushl_cfi_r %edx  /* Arg #2 */
	pushl_cfi_r %ecx  /* Arg #1 */
	pushl_cfi_r %ebx  /* Arg #0 */
	EXTERN(sys_ioctl)
	call   sys_ioctl
	popl_cfi_r %ebx
	popl_cfi_r %ecx
	popl_cfi_r %edx
	popl_cfi %fs
	.cfi_restore_iret_fs
	popl_cfi %es
	.cfi_restore_iret_es
	popl_cfi %ds
	.cfi_restore_iret_ds
	iret
	.cfi_endproc
END(__x86_asm32_int80_ioctl)

/* syscall_slong_t fcntl(fd_t fd, fcntl_t command, void *arg) */
.section .text.x86.asm32_syscall_int80.fcntl
INTERN_WEAK_FUNCTION(__x86_asm32_int80_fcntl)
	.cfi_startproc simple
	.cfi_personality 0, x86_syscall_personality_asm32_int80
	.cfi_lsda 0, 0x37
	.cfi_iret_signal_frame
	.cfi_def_cfa %esp, 0
	pushl_cfi %ds
	.cfi_restore_iret_ds_or_offset -4
	pushl_cfi %es
	.cfi_restore_iret_es_or_offset -8
	pushl_cfi %fs
	.cfi_restore_iret_fs_or_offset -12
	movw   $(SEGMENT_USER_DATA_RPL), %ax
	movw   %ax, %ds
	movw   %ax, %es
	movw   $(SEGMENT_KERNEL_FSBASE), %ax
	movw   %ax, %fs
	pushl_cfi_r %edx  /* Arg #2 */
	pushl_cfi_r %ecx  /* Arg #1 */
	pushl_cfi_r %ebx  /* Arg #0 */
	EXTERN(sys_fcntl)
	call   sys_fcntl
	popl_cfi_r %ebx
	popl_cfi_r %ecx
	popl_cfi_r %edx
	popl_cfi %fs
	.cfi_restore_iret_fs
	popl_cfi %es
	.cfi_restore_iret_es
	popl_cfi %ds
	.cfi_restore_iret_ds
	iret
	.cfi_endproc
END(__x86_asm32_int80_fcntl)

/* errno_t mpx(void) */
.section .text.x86.asm32_syscall_int80.mpx
INTERN_WEAK_FUNCTION(__x86_asm32_int80_mpx)
	.cfi_startproc simple
	.cfi_personality 0, x86_syscall_personality_asm32_int80
	.cfi_lsda 0, 0x38
	.cfi_iret_signal_frame
	.cfi_def_cfa %esp, 0
	pushl_cfi %ds
	.cfi_restore_iret_ds_or_offset -4
	pushl_cfi %es
	.cfi_restore_iret_es_or_offset -8
	pushl_cfi %fs
	.cfi_restore_iret_fs_or_offset -12
	movw   $(SEGMENT_USER_DATA_RPL), %ax
	movw   %ax, %ds
	movw   %ax, %es
	movw   $(SEGMENT_KERNEL_FSBASE), %ax
	movw   %ax, %fs
	pushl_cfi_r %ecx
	pushl_cfi_r %edx
	EXTERN(sys_mpx)
	call   sys_mpx
	popl_cfi_r %edx
	popl_cfi_r %ecx
	popl_cfi %fs
	.cfi_restore_iret_fs
	popl_cfi %es
	.cfi_restore_iret_es
	popl_cfi %ds
	.cfi_restore_iret_ds
	iret
	.cfi_endproc
END(__x86_asm32_int80_mpx)

/* errno_t setpgid(pid_t pid, pid_t pgid) */
.section .text.x86.asm32_syscall_int80.setpgid
INTERN_WEAK_FUNCTION(__x86_asm32_int80_setpgid)
	.cfi_startproc simple
	.cfi_personality 0, x86_syscall_personality_asm32_int80
	.cfi_lsda 0, 0x39
	.cfi_iret_signal_frame
	.cfi_def_cfa %esp, 0
	pushl_cfi %ds
	.cfi_restore_iret_ds_or_offset -4
	pushl_cfi %es
	.cfi_restore_iret_es_or_offset -8
	pushl_cfi %fs
	.cfi_restore_iret_fs_or_offset -12
	movw   $(SEGMENT_USER_DATA_RPL), %ax
	movw   %ax, %ds
	movw   %ax, %es
	movw   $(SEGMENT_KERNEL_FSBASE), %ax
	movw   %ax, %fs
	pushl_cfi_r %edx
	pushl_cfi_r %ecx  /* Arg #1 */
	pushl_cfi_r %ebx  /* Arg #0 */
	EXTERN(sys_setpgid)
	call   sys_setpgid
	popl_cfi_r %ebx
	popl_cfi_r %ecx
	popl_cfi_r %edx
	popl_cfi %fs
	.cfi_restore_iret_fs
	popl_cfi %es
	.cfi_restore_iret_es
	popl_cfi %ds
	.cfi_restore_iret_ds
	iret
	.cfi_endproc
END(__x86_asm32_int80_setpgid)

/* errno_t ulimit(void) */
.section .text.x86.asm32_syscall_int80.ulimit
INTERN_WEAK_FUNCTION(__x86_asm32_int80_ulimit)
	.cfi_startproc simple
	.cfi_personality 0, x86_syscall_personality_asm32_int80
	.cfi_lsda 0, 0x3a
	.cfi_iret_signal_frame
	.cfi_def_cfa %esp, 0
	pushl_cfi %ds
	.cfi_restore_iret_ds_or_offset -4
	pushl_cfi %es
	.cfi_restore_iret_es_or_offset -8
	pushl_cfi %fs
	.cfi_restore_iret_fs_or_offset -12
	movw   $(SEGMENT_USER_DATA_RPL), %ax
	movw   %ax, %ds
	movw   %ax, %es
	movw   $(SEGMENT_KERNEL_FSBASE), %ax
	movw   %ax, %fs
	pushl_cfi_r %ecx
	pushl_cfi_r %edx
	EXTERN(sys_ulimit)
	call   sys_ulimit
	popl_cfi_r %edx
	popl_cfi_r %ecx
	popl_cfi %fs
	.cfi_restore_iret_fs
	popl_cfi %es
	.cfi_restore_iret_es
	popl_cfi %ds
	.cfi_restore_iret_ds
	iret
	.cfi_endproc
END(__x86_asm32_int80_ulimit)

/* errno_t oldolduname(struct linux_oldolduname *name) */
.section .text.x86.asm32_syscall_int80.oldolduname
INTERN_WEAK_FUNCTION(__x86_asm32_int80_oldolduname)
	.cfi_startproc simple
	.cfi_personality 0, x86_syscall_personality_asm32_int80
	.cfi_lsda 0, 0x3b
	.cfi_iret_signal_frame
	.cfi_def_cfa %esp, 0
	pushl_cfi %ds
	.cfi_restore_iret_ds_or_offset -4
	pushl_cfi %es
	.cfi_restore_iret_es_or_offset -8
	pushl_cfi %fs
	.cfi_restore_iret_fs_or_offset -12
	movw   $(SEGMENT_USER_DATA_RPL), %ax
	movw   %ax, %ds
	movw   %ax, %es
	movw   $(SEGMENT_KERNEL_FSBASE), %ax
	movw   %ax, %fs
	pushl_cfi_r %ecx
	pushl_cfi_r %edx
	pushl_cfi_r %ebx  /* Arg #0 */
	EXTERN(sys_oldolduname)
	call   sys_oldolduname
	popl_cfi_r %ebx
	popl_cfi_r %edx
	popl_cfi_r %ecx
	popl_cfi %fs
	.cfi_restore_iret_fs
	popl_cfi %es
	.cfi_restore_iret_es
	popl_cfi %ds
	.cfi_restore_iret_ds
	iret
	.cfi_endproc
END(__x86_asm32_int80_oldolduname)

/* mode_t umask(mode_t mode) */
.section .text.x86.asm32_syscall_int80.umask
INTERN_WEAK_FUNCTION(__x86_asm32_int80_umask)
	.cfi_startproc simple
	.cfi_personality 0, x86_syscall_personality_asm32_int80
	.cfi_lsda 0, 0x3c
	.cfi_iret_signal_frame
	.cfi_def_cfa %esp, 0
	pushl_cfi %ds
	.cfi_restore_iret_ds_or_offset -4
	pushl_cfi %es
	.cfi_restore_iret_es_or_offset -8
	pushl_cfi %fs
	.cfi_restore_iret_fs_or_offset -12
	movw   $(SEGMENT_USER_DATA_RPL), %ax
	movw   %ax, %ds
	movw   %ax, %es
	movw   $(SEGMENT_KERNEL_FSBASE), %ax
	movw   %ax, %fs
	pushl_cfi_r %ecx
	pushl_cfi_r %edx
	pushl_cfi_r %ebx  /* Arg #0 */
	EXTERN(sys_umask)
	call   sys_umask
	popl_cfi_r %ebx
	popl_cfi_r %edx
	popl_cfi_r %ecx
	popl_cfi %fs
	.cfi_restore_iret_fs
	popl_cfi %es
	.cfi_restore_iret_es
	popl_cfi %ds
	.cfi_restore_iret_ds
	iret
	.cfi_endproc
END(__x86_asm32_int80_umask)

/* errno_t chroot(char const *path) */
.section .text.x86.asm32_syscall_int80.chroot
INTERN_WEAK_FUNCTION(__x86_asm32_int80_chroot)
	.cfi_startproc simple
	.cfi_personality 0, x86_syscall_personality_asm32_int80
	.cfi_lsda 0, 0x3d
	.cfi_iret_signal_frame
	.cfi_def_cfa %esp, 0
	pushl_cfi %ds
	.cfi_restore_iret_ds_or_offset -4
	pushl_cfi %es
	.cfi_restore_iret_es_or_offset -8
	pushl_cfi %fs
	.cfi_restore_iret_fs_or_offset -12
	movw   $(SEGMENT_USER_DATA_RPL), %ax
	movw   %ax, %ds
	movw   %ax, %es
	movw   $(SEGMENT_KERNEL_FSBASE), %ax
	movw   %ax, %fs
	pushl_cfi_r %ecx
	pushl_cfi_r %edx
	pushl_cfi_r %ebx  /* Arg #0 */
	EXTERN(sys_chroot)
	call   sys_chroot
	popl_cfi_r %ebx
	popl_cfi_r %edx
	popl_cfi_r %ecx
	popl_cfi %fs
	.cfi_restore_iret_fs
	popl_cfi %es
	.cfi_restore_iret_es
	popl_cfi %ds
	.cfi_restore_iret_ds
	iret
	.cfi_endproc
END(__x86_asm32_int80_chroot)

/* errno_t ustat(dev_t dev, struct ustat *ubuf) */
.section .text.x86.asm32_syscall_int80.ustat
INTERN_WEAK_FUNCTION(__x86_asm32_int80_ustat)
	.cfi_startproc simple
	.cfi_personality 0, x86_syscall_personality_asm32_int80
	.cfi_lsda 0, 0x3e
	.cfi_iret_signal_frame
	.cfi_def_cfa %esp, 0
	pushl_cfi %ds
	.cfi_restore_iret_ds_or_offset -4
	pushl_cfi %es
	.cfi_restore_iret_es_or_offset -8
	pushl_cfi %fs
	.cfi_restore_iret_fs_or_offset -12
	movw   $(SEGMENT_USER_DATA_RPL), %ax
	movw   %ax, %ds
	movw   %ax, %es
	movw   $(SEGMENT_KERNEL_FSBASE), %ax
	movw   %ax, %fs
	pushl_cfi_r %edx
	pushl_cfi_r %ecx  /* Arg #1 */
	pushl_cfi_r %ebx  /* Arg #0 */
	EXTERN(sys_ustat)
	call   sys_ustat
	popl_cfi_r %ebx
	popl_cfi_r %ecx
	popl_cfi_r %edx
	popl_cfi %fs
	.cfi_restore_iret_fs
	popl_cfi %es
	.cfi_restore_iret_es
	popl_cfi %ds
	.cfi_restore_iret_ds
	iret
	.cfi_endproc
END(__x86_asm32_int80_ustat)

/* fd_t dup2(fd_t oldfd, fd_t newfd) */
.section .text.x86.asm32_syscall_int80.dup2
INTERN_WEAK_FUNCTION(__x86_asm32_int80_dup2)
	.cfi_startproc simple
	.cfi_personality 0, x86_syscall_personality_asm32_int80
	.cfi_lsda 0, 0x3f
	.cfi_iret_signal_frame
	.cfi_def_cfa %esp, 0
	pushl_cfi %ds
	.cfi_restore_iret_ds_or_offset -4
	pushl_cfi %es
	.cfi_restore_iret_es_or_offset -8
	pushl_cfi %fs
	.cfi_restore_iret_fs_or_offset -12
	movw   $(SEGMENT_USER_DATA_RPL), %ax
	movw   %ax, %ds
	movw   %ax, %es
	movw   $(SEGMENT_KERNEL_FSBASE), %ax
	movw   %ax, %fs
	pushl_cfi_r %edx
	pushl_cfi_r %ecx  /* Arg #1 */
	pushl_cfi_r %ebx  /* Arg #0 */
	EXTERN(sys_dup2)
	call   sys_dup2
	popl_cfi_r %ebx
	popl_cfi_r %ecx
	popl_cfi_r %edx
	popl_cfi %fs
	.cfi_restore_iret_fs
	popl_cfi %es
	.cfi_restore_iret_es
	popl_cfi %ds
	.cfi_restore_iret_ds
	iret
	.cfi_endproc
END(__x86_asm32_int80_dup2)

/* pid_t getppid(void) */
.section .text.x86.asm32_syscall_int80.getppid
INTERN_WEAK_FUNCTION(__x86_asm32_int80_getppid)
	.cfi_startproc simple
	.cfi_personality 0, x86_syscall_personality_asm32_int80
	.cfi_lsda 0, 0x40
	.cfi_iret_signal_frame
	.cfi_def_cfa %esp, 0
	pushl_cfi %ds
	.cfi_restore_iret_ds_or_offset -4
	pushl_cfi %es
	.cfi_restore_iret_es_or_offset -8
	pushl_cfi %fs
	.cfi_restore_iret_fs_or_offset -12
	movw   $(SEGMENT_USER_DATA_RPL), %ax
	movw   %ax, %ds
	movw   %ax, %es
	movw   $(SEGMENT_KERNEL_FSBASE), %ax
	movw   %ax, %fs
	pushl_cfi_r %ecx
	pushl_cfi_r %edx
	EXTERN(sys_getppid)
	call   sys_getppid
	popl_cfi_r %edx
	popl_cfi_r %ecx
	popl_cfi %fs
	.cfi_restore_iret_fs
	popl_cfi %es
	.cfi_restore_iret_es
	popl_cfi %ds
	.cfi_restore_iret_ds
	iret
	.cfi_endproc
END(__x86_asm32_int80_getppid)

/* pid_t getpgrp(void) */
.section .text.x86.asm32_syscall_int80.getpgrp
INTERN_WEAK_FUNCTION(__x86_asm32_int80_getpgrp)
	.cfi_startproc simple
	.cfi_personality 0, x86_syscall_personality_asm32_int80
	.cfi_lsda 0, 0x41
	.cfi_iret_signal_frame
	.cfi_def_cfa %esp, 0
	pushl_cfi %ds
	.cfi_restore_iret_ds_or_offset -4
	pushl_cfi %es
	.cfi_restore_iret_es_or_offset -8
	pushl_cfi %fs
	.cfi_restore_iret_fs_or_offset -12
	movw   $(SEGMENT_USER_DATA_RPL), %ax
	movw   %ax, %ds
	movw   %ax, %es
	movw   $(SEGMENT_KERNEL_FSBASE), %ax
	movw   %ax, %fs
	pushl_cfi_r %ecx
	pushl_cfi_r %edx
	EXTERN(sys_getpgrp)
	call   sys_getpgrp
	popl_cfi_r %edx
	popl_cfi_r %ecx
	popl_cfi %fs
	.cfi_restore_iret_fs
	popl_cfi %es
	.cfi_restore_iret_es
	popl_cfi %ds
	.cfi_restore_iret_ds
	iret
	.cfi_endproc
END(__x86_asm32_int80_getpgrp)

/* pid_t setsid(void) */
.section .text.x86.asm32_syscall_int80.setsid
INTERN_WEAK_FUNCTION(__x86_asm32_int80_setsid)
	.cfi_startproc simple
	.cfi_personality 0, x86_syscall_personality_asm32_int80
	.cfi_lsda 0, 0x42
	.cfi_iret_signal_frame
	.cfi_def_cfa %esp, 0
	pushl_cfi %ds
	.cfi_restore_iret_ds_or_offset -4
	pushl_cfi %es
	.cfi_restore_iret_es_or_offset -8
	pushl_cfi %fs
	.cfi_restore_iret_fs_or_offset -12
	movw   $(SEGMENT_USER_DATA_RPL), %ax
	movw   %ax, %ds
	movw   %ax, %es
	movw   $(SEGMENT_KERNEL_FSBASE), %ax
	movw   %ax, %fs
	pushl_cfi_r %ecx
	pushl_cfi_r %edx
	EXTERN(sys_setsid)
	call   sys_setsid
	popl_cfi_r %edx
	popl_cfi_r %ecx
	popl_cfi %fs
	.cfi_restore_iret_fs
	popl_cfi %es
	.cfi_restore_iret_es
	popl_cfi %ds
	.cfi_restore_iret_ds
	iret
	.cfi_endproc
END(__x86_asm32_int80_setsid)

/* errno_t sigaction(signo_t signo, struct __old_kernel_sigactionx32 const *act, struct __old_kernel_sigactionx32 *oact) */
.section .text.x86.asm32_syscall_int80.sigaction
INTERN_WEAK_FUNCTION(__x86_asm32_int80_sigaction)
	.cfi_startproc simple
	.cfi_personality 0, x86_syscall_personality_asm32_int80
	.cfi_lsda 0, 0x43
	.cfi_iret_signal_frame
	.cfi_def_cfa %esp, 0
	pushl_cfi %ds
	.cfi_restore_iret_ds_or_offset -4
	pushl_cfi %es
	.cfi_restore_iret_es_or_offset -8
	pushl_cfi %fs
	.cfi_restore_iret_fs_or_offset -12
	movw   $(SEGMENT_USER_DATA_RPL), %ax
	movw   %ax, %ds
	movw   %ax, %es
	movw   $(SEGMENT_KERNEL_FSBASE), %ax
	movw   %ax, %fs
	pushl_cfi_r %edx  /* Arg #2 */
	pushl_cfi_r %ecx  /* Arg #1 */
	pushl_cfi_r %ebx  /* Arg #0 */
	EXTERN(sys_sigaction)
	call   sys_sigaction
	popl_cfi_r %ebx
	popl_cfi_r %ecx
	popl_cfi_r %edx
	popl_cfi %fs
	.cfi_restore_iret_fs
	popl_cfi %es
	.cfi_restore_iret_es
	popl_cfi %ds
	.cfi_restore_iret_ds
	iret
	.cfi_endproc
END(__x86_asm32_int80_sigaction)

/* syscall_ulong_t sgetmask(void) */
.section .text.x86.asm32_syscall_int80.sgetmask
INTERN_WEAK_FUNCTION(__x86_asm32_int80_sgetmask)
	.cfi_startproc simple
	.cfi_personality 0, x86_syscall_personality_asm32_int80
	.cfi_lsda 0, 0x44
	.cfi_iret_signal_frame
	.cfi_def_cfa %esp, 0
	pushl_cfi %ds
	.cfi_restore_iret_ds_or_offset -4
	pushl_cfi %es
	.cfi_restore_iret_es_or_offset -8
	pushl_cfi %fs
	.cfi_restore_iret_fs_or_offset -12
	movw   $(SEGMENT_USER_DATA_RPL), %ax
	movw   %ax, %ds
	movw   %ax, %es
	movw   $(SEGMENT_KERNEL_FSBASE), %ax
	movw   %ax, %fs
	pushl_cfi_r %ecx
	pushl_cfi_r %edx
	EXTERN(sys_sgetmask)
	call   sys_sgetmask
	popl_cfi_r %edx
	popl_cfi_r %ecx
	popl_cfi %fs
	.cfi_restore_iret_fs
	popl_cfi %es
	.cfi_restore_iret_es
	popl_cfi %ds
	.cfi_restore_iret_ds
	iret
	.cfi_endproc
END(__x86_asm32_int80_sgetmask)

/* syscall_ulong_t ssetmask(syscall_ulong_t sigmask) */
.section .text.x86.asm32_syscall_int80.ssetmask
INTERN_WEAK_FUNCTION(__x86_asm32_int80_ssetmask)
	.cfi_startproc simple
	.cfi_personality 0, x86_syscall_personality_asm32_int80
	.cfi_lsda 0, 0x45
	.cfi_iret_signal_frame
	.cfi_def_cfa %esp, 0
	pushl_cfi %ds
	.cfi_restore_iret_ds_or_offset -4
	pushl_cfi %es
	.cfi_restore_iret_es_or_offset -8
	pushl_cfi %fs
	.cfi_restore_iret_fs_or_offset -12
	movw   $(SEGMENT_USER_DATA_RPL), %ax
	movw   %ax, %ds
	movw   %ax, %es
	movw   $(SEGMENT_KERNEL_FSBASE), %ax
	movw   %ax, %fs
	pushl_cfi_r %ecx
	pushl_cfi_r %edx
	pushl_cfi_r %ebx  /* Arg #0 */
	EXTERN(sys_ssetmask)
	call   sys_ssetmask
	popl_cfi_r %ebx
	popl_cfi_r %edx
	popl_cfi_r %ecx
	popl_cfi %fs
	.cfi_restore_iret_fs
	popl_cfi %es
	.cfi_restore_iret_es
	popl_cfi %ds
	.cfi_restore_iret_ds
	iret
	.cfi_endproc
END(__x86_asm32_int80_ssetmask)

/* >> setreuid(2)
 * Set the real and effective UID of the calling thread.
 * @return: 0 : Success
 * @throw: E_INSUFFICIENT_RIGHTS:CAP_SETUID: [...] */
/* errno_t setreuid(uint16_t ruid, uint16_t euid) */
.section .text.x86.asm32_syscall_int80.setreuid
INTERN_WEAK_FUNCTION(__x86_asm32_int80_setreuid)
	.cfi_startproc simple
	.cfi_personality 0, x86_syscall_personality_asm32_int80
	.cfi_lsda 0, 0x46
	.cfi_iret_signal_frame
	.cfi_def_cfa %esp, 0
	pushl_cfi %ds
	.cfi_restore_iret_ds_or_offset -4
	pushl_cfi %es
	.cfi_restore_iret_es_or_offset -8
	pushl_cfi %fs
	.cfi_restore_iret_fs_or_offset -12
	movw   $(SEGMENT_USER_DATA_RPL), %ax
	movw   %ax, %ds
	movw   %ax, %es
	movw   $(SEGMENT_KERNEL_FSBASE), %ax
	movw   %ax, %fs
	pushl_cfi_r %edx
	pushl_cfi_r %ecx  /* Arg #1 */
	pushl_cfi_r %ebx  /* Arg #0 */
	EXTERN(sys_setreuid)
	call   sys_setreuid
	popl_cfi_r %ebx
	popl_cfi_r %ecx
	popl_cfi_r %edx
	popl_cfi %fs
	.cfi_restore_iret_fs
	popl_cfi %es
	.cfi_restore_iret_es
	popl_cfi %ds
	.cfi_restore_iret_ds
	iret
	.cfi_endproc
END(__x86_asm32_int80_setreuid)

/* >> setregid(2)
 * Set the real and effective GID of the calling thread.
 * @return: 0 : Success
 * @throw: E_INSUFFICIENT_RIGHTS:CAP_SETGID: [...] */
/* errno_t setregid(uint16_t rgid, uint16_t egid) */
.section .text.x86.asm32_syscall_int80.setregid
INTERN_WEAK_FUNCTION(__x86_asm32_int80_setregid)
	.cfi_startproc simple
	.cfi_personality 0, x86_syscall_personality_asm32_int80
	.cfi_lsda 0, 0x47
	.cfi_iret_signal_frame
	.cfi_def_cfa %esp, 0
	pushl_cfi %ds
	.cfi_restore_iret_ds_or_offset -4
	pushl_cfi %es
	.cfi_restore_iret_es_or_offset -8
	pushl_cfi %fs
	.cfi_restore_iret_fs_or_offset -12
	movw   $(SEGMENT_USER_DATA_RPL), %ax
	movw   %ax, %ds
	movw   %ax, %es
	movw   $(SEGMENT_KERNEL_FSBASE), %ax
	movw   %ax, %fs
	pushl_cfi_r %edx
	pushl_cfi_r %ecx  /* Arg #1 */
	pushl_cfi_r %ebx  /* Arg #0 */
	EXTERN(sys_setregid)
	call   sys_setregid
	popl_cfi_r %ebx
	popl_cfi_r %ecx
	popl_cfi_r %edx
	popl_cfi %fs
	.cfi_restore_iret_fs
	popl_cfi %es
	.cfi_restore_iret_es
	popl_cfi %ds
	.cfi_restore_iret_ds
	iret
	.cfi_endproc
END(__x86_asm32_int80_setregid)

/* >> sigsuspend(2), rt_sigsuspend(2)
 * Atomically save and  set the caller's  signal mask to  `set', then wait  for
 * one of the unmasked (iow: `!sigismember')-signals to arrive before restoring
 * the old signal mask.
 * @param: set: The set of signals on which to wait
 * @return: -1: [errno=EINTR] The signal handler for `signo' was executed. */
/* errno_t sigsuspend(struct __old_sigset_struct const *set) */
.section .text.x86.asm32_syscall_int80.sigsuspend
INTERN_WEAK_FUNCTION(__x86_asm32_int80_sigsuspend)
	.cfi_startproc simple
	.cfi_personality 0, x86_syscall_personality_asm32_int80
	.cfi_lsda 0, 0x48
	.cfi_iret_signal_frame
	.cfi_def_cfa %esp, 0
	pushl_cfi %ds
	.cfi_restore_iret_ds_or_offset -4
	pushl_cfi %es
	.cfi_restore_iret_es_or_offset -8
	pushl_cfi %fs
	.cfi_restore_iret_fs_or_offset -12
	movw   $(SEGMENT_USER_DATA_RPL), %ax
	movw   %ax, %ds
	movw   %ax, %es
	movw   $(SEGMENT_KERNEL_FSBASE), %ax
	movw   %ax, %fs
	pushl_cfi_r %ecx
	pushl_cfi_r %edx
	pushl_cfi_r %ebx  /* Arg #0 */
	EXTERN(sys_sigsuspend)
	call   sys_sigsuspend
	popl_cfi_r %ebx
	popl_cfi_r %edx
	popl_cfi_r %ecx
	popl_cfi %fs
	.cfi_restore_iret_fs
	popl_cfi %es
	.cfi_restore_iret_es
	popl_cfi %ds
	.cfi_restore_iret_ds
	iret
	.cfi_endproc
END(__x86_asm32_int80_sigsuspend)

/* errno_t sigpending(struct __old_sigset_struct *set) */
.section .text.x86.asm32_syscall_int80.sigpending
INTERN_WEAK_FUNCTION(__x86_asm32_int80_sigpending)
	.cfi_startproc simple
	.cfi_personality 0, x86_syscall_personality_asm32_int80
	.cfi_lsda 0, 0x49
	.cfi_iret_signal_frame
	.cfi_def_cfa %esp, 0
	pushl_cfi %ds
	.cfi_restore_iret_ds_or_offset -4
	pushl_cfi %es
	.cfi_restore_iret_es_or_offset -8
	pushl_cfi %fs
	.cfi_restore_iret_fs_or_offset -12
	movw   $(SEGMENT_USER_DATA_RPL), %ax
	movw   %ax, %ds
	movw   %ax, %es
	movw   $(SEGMENT_KERNEL_FSBASE), %ax
	movw   %ax, %fs
	pushl_cfi_r %ecx
	pushl_cfi_r %edx
	pushl_cfi_r %ebx  /* Arg #0 */
	EXTERN(sys_sigpending)
	call   sys_sigpending
	popl_cfi_r %ebx
	popl_cfi_r %edx
	popl_cfi_r %ecx
	popl_cfi %fs
	.cfi_restore_iret_fs
	popl_cfi %es
	.cfi_restore_iret_es
	popl_cfi %ds
	.cfi_restore_iret_ds
	iret
	.cfi_endproc
END(__x86_asm32_int80_sigpending)

/* errno_t sethostname(char const *name, size_t len) */
.section .text.x86.asm32_syscall_int80.sethostname
INTERN_WEAK_FUNCTION(__x86_asm32_int80_sethostname)
	.cfi_startproc simple
	.cfi_personality 0, x86_syscall_personality_asm32_int80
	.cfi_lsda 0, 0x4a
	.cfi_iret_signal_frame
	.cfi_def_cfa %esp, 0
	pushl_cfi %ds
	.cfi_restore_iret_ds_or_offset -4
	pushl_cfi %es
	.cfi_restore_iret_es_or_offset -8
	pushl_cfi %fs
	.cfi_restore_iret_fs_or_offset -12
	movw   $(SEGMENT_USER_DATA_RPL), %ax
	movw   %ax, %ds
	movw   %ax, %es
	movw   $(SEGMENT_KERNEL_FSBASE), %ax
	movw   %ax, %fs
	pushl_cfi_r %edx
	pushl_cfi_r %ecx  /* Arg #1 */
	pushl_cfi_r %ebx  /* Arg #0 */
	EXTERN(sys_sethostname)
	call   sys_sethostname
	popl_cfi_r %ebx
	popl_cfi_r %ecx
	popl_cfi_r %edx
	popl_cfi %fs
	.cfi_restore_iret_fs
	popl_cfi %es
	.cfi_restore_iret_es
	popl_cfi %ds
	.cfi_restore_iret_ds
	iret
	.cfi_endproc
END(__x86_asm32_int80_sethostname)

/* @param: resource: One of `RLIMIT_*' from <sys/resource.h> */
/* errno_t setrlimit(syscall_ulong_t resource, struct rlimitx32 const *rlimits) */
.section .text.x86.asm32_syscall_int80.setrlimit
INTERN_WEAK_FUNCTION(__x86_asm32_int80_setrlimit)
	.cfi_startproc simple
	.cfi_personality 0, x86_syscall_personality_asm32_int80
	.cfi_lsda 0, 0x4b
	.cfi_iret_signal_frame
	.cfi_def_cfa %esp, 0
	pushl_cfi %ds
	.cfi_restore_iret_ds_or_offset -4
	pushl_cfi %es
	.cfi_restore_iret_es_or_offset -8
	pushl_cfi %fs
	.cfi_restore_iret_fs_or_offset -12
	movw   $(SEGMENT_USER_DATA_RPL), %ax
	movw   %ax, %ds
	movw   %ax, %es
	movw   $(SEGMENT_KERNEL_FSBASE), %ax
	movw   %ax, %fs
	pushl_cfi_r %edx
	pushl_cfi_r %ecx  /* Arg #1 */
	pushl_cfi_r %ebx  /* Arg #0 */
	EXTERN(sys_setrlimit)
	call   sys_setrlimit
	popl_cfi_r %ebx
	popl_cfi_r %ecx
	popl_cfi_r %edx
	popl_cfi %fs
	.cfi_restore_iret_fs
	popl_cfi %es
	.cfi_restore_iret_es
	popl_cfi %ds
	.cfi_restore_iret_ds
	iret
	.cfi_endproc
END(__x86_asm32_int80_setrlimit)

/* @param: resource: One of `RLIMIT_*' from <sys/resource.h> */
/* errno_t getrlimit(syscall_ulong_t resource, struct rlimitx32 *rlimits) */
.section .text.x86.asm32_syscall_int80.getrlimit
INTERN_WEAK_FUNCTION(__x86_asm32_int80_getrlimit)
	.cfi_startproc simple
	.cfi_personality 0, x86_syscall_personality_asm32_int80
	.cfi_lsda 0, 0x4c
	.cfi_iret_signal_frame
	.cfi_def_cfa %esp, 0
	pushl_cfi %ds
	.cfi_restore_iret_ds_or_offset -4
	pushl_cfi %es
	.cfi_restore_iret_es_or_offset -8
	pushl_cfi %fs
	.cfi_restore_iret_fs_or_offset -12
	movw   $(SEGMENT_USER_DATA_RPL), %ax
	movw   %ax, %ds
	movw   %ax, %es
	movw   $(SEGMENT_KERNEL_FSBASE), %ax
	movw   %ax, %fs
	pushl_cfi_r %edx
	pushl_cfi_r %ecx  /* Arg #1 */
	pushl_cfi_r %ebx  /* Arg #0 */
	EXTERN(sys_getrlimit)
	call   sys_getrlimit
	popl_cfi_r %ebx
	popl_cfi_r %ecx
	popl_cfi_r %edx
	popl_cfi %fs
	.cfi_restore_iret_fs
	popl_cfi %es
	.cfi_restore_iret_es
	popl_cfi %ds
	.cfi_restore_iret_ds
	iret
	.cfi_endproc
END(__x86_asm32_int80_getrlimit)

/* @param: who: One of `RUSAGE_SELF', `RUSAGE_CHILDREN' or `RUSAGE_THREAD' */
/* errno_t getrusage(syscall_slong_t who, struct rusagex32 *tv) */
.section .text.x86.asm32_syscall_int80.getrusage
INTERN_WEAK_FUNCTION(__x86_asm32_int80_getrusage)
	.cfi_startproc simple
	.cfi_personality 0, x86_syscall_personality_asm32_int80
	.cfi_lsda 0, 0x4d
	.cfi_iret_signal_frame
	.cfi_def_cfa %esp, 0
	pushl_cfi %ds
	.cfi_restore_iret_ds_or_offset -4
	pushl_cfi %es
	.cfi_restore_iret_es_or_offset -8
	pushl_cfi %fs
	.cfi_restore_iret_fs_or_offset -12
	movw   $(SEGMENT_USER_DATA_RPL), %ax
	movw   %ax, %ds
	movw   %ax, %es
	movw   $(SEGMENT_KERNEL_FSBASE), %ax
	movw   %ax, %fs
	pushl_cfi_r %edx
	pushl_cfi_r %ecx  /* Arg #1 */
	pushl_cfi_r %ebx  /* Arg #0 */
	EXTERN(sys_getrusage)
	call   sys_getrusage
	popl_cfi_r %ebx
	popl_cfi_r %ecx
	popl_cfi_r %edx
	popl_cfi %fs
	.cfi_restore_iret_fs
	popl_cfi %es
	.cfi_restore_iret_es
	popl_cfi %ds
	.cfi_restore_iret_ds
	iret
	.cfi_endproc
END(__x86_asm32_int80_getrusage)

/* errno_t gettimeofday(struct timevalx32 *tv, struct timezone *tz) */
.section .text.x86.asm32_syscall_int80.gettimeofday
INTERN_WEAK_FUNCTION(__x86_asm32_int80_gettimeofday)
	.cfi_startproc simple
	.cfi_personality 0, x86_syscall_personality_asm32_int80
	.cfi_lsda 0, 0x4e
	.cfi_iret_signal_frame
	.cfi_def_cfa %esp, 0
	pushl_cfi %ds
	.cfi_restore_iret_ds_or_offset -4
	pushl_cfi %es
	.cfi_restore_iret_es_or_offset -8
	pushl_cfi %fs
	.cfi_restore_iret_fs_or_offset -12
	movw   $(SEGMENT_USER_DATA_RPL), %ax
	movw   %ax, %ds
	movw   %ax, %es
	movw   $(SEGMENT_KERNEL_FSBASE), %ax
	movw   %ax, %fs
	pushl_cfi_r %edx
	pushl_cfi_r %ecx  /* Arg #1 */
	pushl_cfi_r %ebx  /* Arg #0 */
	EXTERN(sys_gettimeofday)
	call   sys_gettimeofday
	popl_cfi_r %ebx
	popl_cfi_r %ecx
	popl_cfi_r %edx
	popl_cfi %fs
	.cfi_restore_iret_fs
	popl_cfi %es
	.cfi_restore_iret_es
	popl_cfi %ds
	.cfi_restore_iret_ds
	iret
	.cfi_endproc
END(__x86_asm32_int80_gettimeofday)

/* errno_t settimeofday(struct timevalx32 const *tv, struct timezone const *tz) */
.section .text.x86.asm32_syscall_int80.settimeofday
INTERN_WEAK_FUNCTION(__x86_asm32_int80_settimeofday)
	.cfi_startproc simple
	.cfi_personality 0, x86_syscall_personality_asm32_int80
	.cfi_lsda 0, 0x4f
	.cfi_iret_signal_frame
	.cfi_def_cfa %esp, 0
	pushl_cfi %ds
	.cfi_restore_iret_ds_or_offset -4
	pushl_cfi %es
	.cfi_restore_iret_es_or_offset -8
	pushl_cfi %fs
	.cfi_restore_iret_fs_or_offset -12
	movw   $(SEGMENT_USER_DATA_RPL), %ax
	movw   %ax, %ds
	movw   %ax, %es
	movw   $(SEGMENT_KERNEL_FSBASE), %ax
	movw   %ax, %fs
	pushl_cfi_r %edx
	pushl_cfi_r %ecx  /* Arg #1 */
	pushl_cfi_r %ebx  /* Arg #0 */
	EXTERN(sys_settimeofday)
	call   sys_settimeofday
	popl_cfi_r %ebx
	popl_cfi_r %ecx
	popl_cfi_r %edx
	popl_cfi %fs
	.cfi_restore_iret_fs
	popl_cfi %es
	.cfi_restore_iret_es
	popl_cfi %ds
	.cfi_restore_iret_ds
	iret
	.cfi_endproc
END(__x86_asm32_int80_settimeofday)

/* @return: * :     [count == 0] The required number of groups
 * @return: * :     [count != 0] The number of groups that were actually returned
 * @throw: -EINVAL: [count != 0] There are more than `count' groups (NOTE: No exception is thrown for this case!) */
/* ssize_t getgroups(size_t count, uint16_t[] list) */
.section .text.x86.asm32_syscall_int80.getgroups
INTERN_WEAK_FUNCTION(__x86_asm32_int80_getgroups)
	.cfi_startproc simple
	.cfi_personality 0, x86_syscall_personality_asm32_int80
	.cfi_lsda 0, 0x50
	.cfi_iret_signal_frame
	.cfi_def_cfa %esp, 0
	pushl_cfi %ds
	.cfi_restore_iret_ds_or_offset -4
	pushl_cfi %es
	.cfi_restore_iret_es_or_offset -8
	pushl_cfi %fs
	.cfi_restore_iret_fs_or_offset -12
	movw   $(SEGMENT_USER_DATA_RPL), %ax
	movw   %ax, %ds
	movw   %ax, %es
	movw   $(SEGMENT_KERNEL_FSBASE), %ax
	movw   %ax, %fs
	pushl_cfi_r %edx
	pushl_cfi_r %ecx  /* Arg #1 */
	pushl_cfi_r %ebx  /* Arg #0 */
	EXTERN(sys_getgroups)
	call   sys_getgroups
	popl_cfi_r %ebx
	popl_cfi_r %ecx
	popl_cfi_r %edx
	popl_cfi %fs
	.cfi_restore_iret_fs
	popl_cfi %es
	.cfi_restore_iret_es
	popl_cfi %ds
	.cfi_restore_iret_ds
	iret
	.cfi_endproc
END(__x86_asm32_int80_getgroups)

/* errno_t setgroups(size_t count, uint16_t const *groups) */
.section .text.x86.asm32_syscall_int80.setgroups
INTERN_WEAK_FUNCTION(__x86_asm32_int80_setgroups)
	.cfi_startproc simple
	.cfi_personality 0, x86_syscall_personality_asm32_int80
	.cfi_lsda 0, 0x51
	.cfi_iret_signal_frame
	.cfi_def_cfa %esp, 0
	pushl_cfi %ds
	.cfi_restore_iret_ds_or_offset -4
	pushl_cfi %es
	.cfi_restore_iret_es_or_offset -8
	pushl_cfi %fs
	.cfi_restore_iret_fs_or_offset -12
	movw   $(SEGMENT_USER_DATA_RPL), %ax
	movw   %ax, %ds
	movw   %ax, %es
	movw   $(SEGMENT_KERNEL_FSBASE), %ax
	movw   %ax, %fs
	pushl_cfi_r %edx
	pushl_cfi_r %ecx  /* Arg #1 */
	pushl_cfi_r %ebx  /* Arg #0 */
	EXTERN(sys_setgroups)
	call   sys_setgroups
	popl_cfi_r %ebx
	popl_cfi_r %ecx
	popl_cfi_r %edx
	popl_cfi %fs
	.cfi_restore_iret_fs
	popl_cfi %es
	.cfi_restore_iret_es
	popl_cfi %ds
	.cfi_restore_iret_ds
	iret
	.cfi_endproc
END(__x86_asm32_int80_setgroups)

/* ssize_t select(struct sel_arg_structx32 const *arg) */
.section .text.x86.asm32_syscall_int80.select
INTERN_WEAK_FUNCTION(__x86_asm32_int80_select)
	.cfi_startproc simple
	.cfi_personality 0, x86_syscall_personality_asm32_int80
	.cfi_lsda 0, 0x52
	.cfi_iret_signal_frame
	.cfi_def_cfa %esp, 0
	pushl_cfi %ds
	.cfi_restore_iret_ds_or_offset -4
	pushl_cfi %es
	.cfi_restore_iret_es_or_offset -8
	pushl_cfi %fs
	.cfi_restore_iret_fs_or_offset -12
	movw   $(SEGMENT_USER_DATA_RPL), %ax
	movw   %ax, %ds
	movw   %ax, %es
	movw   $(SEGMENT_KERNEL_FSBASE), %ax
	movw   %ax, %fs
	pushl_cfi_r %ecx
	pushl_cfi_r %edx
	pushl_cfi_r %ebx  /* Arg #0 */
	EXTERN(sys_select)
	call   sys_select
	popl_cfi_r %ebx
	popl_cfi_r %edx
	popl_cfi_r %ecx
	popl_cfi %fs
	.cfi_restore_iret_fs
	popl_cfi %es
	.cfi_restore_iret_es
	popl_cfi %ds
	.cfi_restore_iret_ds
	iret
	.cfi_endproc
END(__x86_asm32_int80_select)

/* errno_t symlink(char const *link_text, char const *target_path) */
.section .text.x86.asm32_syscall_int80.symlink
INTERN_WEAK_FUNCTION(__x86_asm32_int80_symlink)
	.cfi_startproc simple
	.cfi_personality 0, x86_syscall_personality_asm32_int80
	.cfi_lsda 0, 0x53
	.cfi_iret_signal_frame
	.cfi_def_cfa %esp, 0
	pushl_cfi %ds
	.cfi_restore_iret_ds_or_offset -4
	pushl_cfi %es
	.cfi_restore_iret_es_or_offset -8
	pushl_cfi %fs
	.cfi_restore_iret_fs_or_offset -12
	movw   $(SEGMENT_USER_DATA_RPL), %ax
	movw   %ax, %ds
	movw   %ax, %es
	movw   $(SEGMENT_KERNEL_FSBASE), %ax
	movw   %ax, %fs
	pushl_cfi_r %edx
	pushl_cfi_r %ecx  /* Arg #1 */
	pushl_cfi_r %ebx  /* Arg #0 */
	EXTERN(sys_symlink)
	call   sys_symlink
	popl_cfi_r %ebx
	popl_cfi_r %ecx
	popl_cfi_r %edx
	popl_cfi %fs
	.cfi_restore_iret_fs
	popl_cfi %es
	.cfi_restore_iret_es
	popl_cfi %ds
	.cfi_restore_iret_ds
	iret
	.cfi_endproc
END(__x86_asm32_int80_symlink)

/* errno_t oldlstat(char const *filename, struct linux_oldstat *statbuf) */
.section .text.x86.asm32_syscall_int80.oldlstat
INTERN_WEAK_FUNCTION(__x86_asm32_int80_oldlstat)
	.cfi_startproc simple
	.cfi_personality 0, x86_syscall_personality_asm32_int80
	.cfi_lsda 0, 0x54
	.cfi_iret_signal_frame
	.cfi_def_cfa %esp, 0
	pushl_cfi %ds
	.cfi_restore_iret_ds_or_offset -4
	pushl_cfi %es
	.cfi_restore_iret_es_or_offset -8
	pushl_cfi %fs
	.cfi_restore_iret_fs_or_offset -12
	movw   $(SEGMENT_USER_DATA_RPL), %ax
	movw   %ax, %ds
	movw   %ax, %es
	movw   $(SEGMENT_KERNEL_FSBASE), %ax
	movw   %ax, %fs
	pushl_cfi_r %edx
	pushl_cfi_r %ecx  /* Arg #1 */
	pushl_cfi_r %ebx  /* Arg #0 */
	EXTERN(sys_oldlstat)
	call   sys_oldlstat
	popl_cfi_r %ebx
	popl_cfi_r %ecx
	popl_cfi_r %edx
	popl_cfi %fs
	.cfi_restore_iret_fs
	popl_cfi %es
	.cfi_restore_iret_es
	popl_cfi %ds
	.cfi_restore_iret_ds
	iret
	.cfi_endproc
END(__x86_asm32_int80_oldlstat)

/* ssize_t readlink(char const *path, char *buf, size_t buflen) */
.section .text.x86.asm32_syscall_int80.readlink
INTERN_WEAK_FUNCTION(__x86_asm32_int80_readlink)
	.cfi_startproc simple
	.cfi_personality 0, x86_syscall_personality_asm32_int80
	.cfi_lsda 0, 0x55
	.cfi_iret_signal_frame
	.cfi_def_cfa %esp, 0
	pushl_cfi %ds
	.cfi_restore_iret_ds_or_offset -4
	pushl_cfi %es
	.cfi_restore_iret_es_or_offset -8
	pushl_cfi %fs
	.cfi_restore_iret_fs_or_offset -12
	movw   $(SEGMENT_USER_DATA_RPL), %ax
	movw   %ax, %ds
	movw   %ax, %es
	movw   $(SEGMENT_KERNEL_FSBASE), %ax
	movw   %ax, %fs
	pushl_cfi_r %edx  /* Arg #2 */
	pushl_cfi_r %ecx  /* Arg #1 */
	pushl_cfi_r %ebx  /* Arg #0 */
	EXTERN(sys_readlink)
	call   sys_readlink
	popl_cfi_r %ebx
	popl_cfi_r %ecx
	popl_cfi_r %edx
	popl_cfi %fs
	.cfi_restore_iret_fs
	popl_cfi %es
	.cfi_restore_iret_es
	popl_cfi %ds
	.cfi_restore_iret_ds
	iret
	.cfi_endproc
END(__x86_asm32_int80_readlink)

/* errno_t uselib(char const *library) */
.section .text.x86.asm32_syscall_int80.uselib
INTERN_WEAK_FUNCTION(__x86_asm32_int80_uselib)
	.cfi_startproc simple
	.cfi_personality 0, x86_syscall_personality_asm32_int80
	.cfi_lsda 0, 0x56
	.cfi_iret_signal_frame
	.cfi_def_cfa %esp, 0
	pushl_cfi %ds
	.cfi_restore_iret_ds_or_offset -4
	pushl_cfi %es
	.cfi_restore_iret_es_or_offset -8
	pushl_cfi %fs
	.cfi_restore_iret_fs_or_offset -12
	movw   $(SEGMENT_USER_DATA_RPL), %ax
	movw   %ax, %ds
	movw   %ax, %es
	movw   $(SEGMENT_KERNEL_FSBASE), %ax
	movw   %ax, %fs
	pushl_cfi_r %ecx
	pushl_cfi_r %edx
	pushl_cfi_r %ebx  /* Arg #0 */
	EXTERN(sys_uselib)
	call   sys_uselib
	popl_cfi_r %ebx
	popl_cfi_r %edx
	popl_cfi_r %ecx
	popl_cfi %fs
	.cfi_restore_iret_fs
	popl_cfi %es
	.cfi_restore_iret_es
	popl_cfi %ds
	.cfi_restore_iret_ds
	iret
	.cfi_endproc
END(__x86_asm32_int80_uselib)

/* @param: swapflags: Set of `SWAP_FLAG_*' */
/* errno_t swapon(char const *pathname, syscall_ulong_t swapflags) */
.section .text.x86.asm32_syscall_int80.swapon
INTERN_WEAK_FUNCTION(__x86_asm32_int80_swapon)
	.cfi_startproc simple
	.cfi_personality 0, x86_syscall_personality_asm32_int80
	.cfi_lsda 0, 0x57
	.cfi_iret_signal_frame
	.cfi_def_cfa %esp, 0
	pushl_cfi %ds
	.cfi_restore_iret_ds_or_offset -4
	pushl_cfi %es
	.cfi_restore_iret_es_or_offset -8
	pushl_cfi %fs
	.cfi_restore_iret_fs_or_offset -12
	movw   $(SEGMENT_USER_DATA_RPL), %ax
	movw   %ax, %ds
	movw   %ax, %es
	movw   $(SEGMENT_KERNEL_FSBASE), %ax
	movw   %ax, %fs
	pushl_cfi_r %edx
	pushl_cfi_r %ecx  /* Arg #1 */
	pushl_cfi_r %ebx  /* Arg #0 */
	EXTERN(sys_swapon)
	call   sys_swapon
	popl_cfi_r %ebx
	popl_cfi_r %ecx
	popl_cfi_r %edx
	popl_cfi %fs
	.cfi_restore_iret_fs
	popl_cfi %es
	.cfi_restore_iret_es
	popl_cfi %ds
	.cfi_restore_iret_ds
	iret
	.cfi_endproc
END(__x86_asm32_int80_swapon)

/* @param: how: One of the `RB_*' constants from <sys/reboot.h> */
/* errno_t reboot(syscall_ulong_t how) */
.section .text.x86.asm32_syscall_int80.reboot
INTERN_WEAK_FUNCTION(__x86_asm32_int80_reboot)
	.cfi_startproc simple
	.cfi_personality 0, x86_syscall_personality_asm32_int80
	.cfi_lsda 0, 0x58
	.cfi_iret_signal_frame
	.cfi_def_cfa %esp, 0
	pushl_cfi %ds
	.cfi_restore_iret_ds_or_offset -4
	pushl_cfi %es
	.cfi_restore_iret_es_or_offset -8
	pushl_cfi %fs
	.cfi_restore_iret_fs_or_offset -12
	movw   $(SEGMENT_USER_DATA_RPL), %ax
	movw   %ax, %ds
	movw   %ax, %es
	movw   $(SEGMENT_KERNEL_FSBASE), %ax
	movw   %ax, %fs
	pushl_cfi_r %ecx
	pushl_cfi_r %edx
	pushl_cfi_r %ebx  /* Arg #0 */
	EXTERN(sys_reboot)
	call   sys_reboot
	popl_cfi_r %ebx
	popl_cfi_r %edx
	popl_cfi_r %ecx
	popl_cfi %fs
	.cfi_restore_iret_fs
	popl_cfi %es
	.cfi_restore_iret_es
	popl_cfi %ds
	.cfi_restore_iret_ds
	iret
	.cfi_endproc
END(__x86_asm32_int80_reboot)

/* Read exactly one directory entry from `fd'
 * Note that the linux version of this system call has one additional argument `count'.
 * However, within the  linux kernel implementation,  that argument is  unconditionally
 * ignored,  and the system call will _always_ read exactly 1 directory entry from `fd'
 * @return: 1 : Read on directory entry
 * @return: 0 : End-of-directory */
/* syscall_slong_t readdir(fd_t fd, struct old_linux_direntx32 *buf) */
.section .text.x86.asm32_syscall_int80.readdir
INTERN_WEAK_FUNCTION(__x86_asm32_int80_readdir)
	.cfi_startproc simple
	.cfi_personality 0, x86_syscall_personality_asm32_int80
	.cfi_lsda 0, 0x59
	.cfi_iret_signal_frame
	.cfi_def_cfa %esp, 0
	pushl_cfi %ds
	.cfi_restore_iret_ds_or_offset -4
	pushl_cfi %es
	.cfi_restore_iret_es_or_offset -8
	pushl_cfi %fs
	.cfi_restore_iret_fs_or_offset -12
	movw   $(SEGMENT_USER_DATA_RPL), %ax
	movw   %ax, %ds
	movw   %ax, %es
	movw   $(SEGMENT_KERNEL_FSBASE), %ax
	movw   %ax, %fs
	pushl_cfi_r %edx
	pushl_cfi_r %ecx  /* Arg #1 */
	pushl_cfi_r %ebx  /* Arg #0 */
	EXTERN(sys_readdir)
	call   sys_readdir
	popl_cfi_r %ebx
	popl_cfi_r %ecx
	popl_cfi_r %edx
	popl_cfi %fs
	.cfi_restore_iret_fs
	popl_cfi %es
	.cfi_restore_iret_es
	popl_cfi %ds
	.cfi_restore_iret_ds
	iret
	.cfi_endproc
END(__x86_asm32_int80_readdir)

/* @param: prot:  Either `PROT_NONE', or set of `PROT_EXEC | PROT_WRITE | PROT_READ | PROT_SEM | PROT_SHARED'
 * @param: flags: One of `MAP_SHARED`, 'MAP_SHARED_VALIDATE' or `MAP_PRIVATE', optionally or'd
 *               with  a  set of  `MAP_ANONYMOUS  | MAP_FIXED  |  MAP_GROWSDOWN |  MAP_LOCKED |
 *               MAP_NONBLOCK  |  MAP_NORESERVE  |  MAP_POPULATE  |  MAP_STACK  |  MAP_SYNC   |
 *               MAP_UNINITIALIZED | MAP_DONT_MAP | MAP_FIXED_NOREPLACE | MAP_OFFSET64_POINTER' */
/* void *mmap(void *addr, size_t len, syscall_ulong_t prot, syscall_ulong_t flags, fd_t fd, syscall_ulong_t offset) */
.section .text.x86.asm32_syscall_int80.mmap
INTERN_WEAK_FUNCTION(__x86_asm32_int80_mmap)
	.cfi_startproc simple
	.cfi_personality 0, x86_syscall_personality_asm32_int80
	.cfi_lsda 0, 0x5a
	.cfi_iret_signal_frame
	.cfi_def_cfa %esp, 0
	pushl_cfi %ds
	.cfi_restore_iret_ds_or_offset -4
	pushl_cfi %es
	.cfi_restore_iret_es_or_offset -8
	pushl_cfi %fs
	.cfi_restore_iret_fs_or_offset -12
	movw   $(SEGMENT_USER_DATA_RPL), %ax
	movw   %ax, %ds
	movw   %ax, %es
	movw   $(SEGMENT_KERNEL_FSBASE), %ax
	movw   %ax, %fs
	pushl_cfi_r %ebp  /* Arg #5 */
	pushl_cfi_r %edi  /* Arg #4 */
	pushl_cfi_r %esi  /* Arg #3 */
	pushl_cfi_r %edx  /* Arg #2 */
	pushl_cfi_r %ecx  /* Arg #1 */
	pushl_cfi_r %ebx  /* Arg #0 */
	EXTERN(sys_mmap)
	call   sys_mmap
	popl_cfi_r %ebx
	popl_cfi_r %ecx
	popl_cfi_r %edx
	addl   $(12), %esp
	.cfi_adjust_cfa_offset -12
	popl_cfi %fs
	.cfi_restore_iret_fs
	popl_cfi %es
	.cfi_restore_iret_es
	popl_cfi %ds
	.cfi_restore_iret_ds
	iret
	.cfi_endproc
END(__x86_asm32_int80_mmap)

/* errno_t munmap(void *addr, size_t len) */
.section .text.x86.asm32_syscall_int80.munmap
INTERN_WEAK_FUNCTION(__x86_asm32_int80_munmap)
	.cfi_startproc simple
	.cfi_personality 0, x86_syscall_personality_asm32_int80
	.cfi_lsda 0, 0x5b
	.cfi_iret_signal_frame
	.cfi_def_cfa %esp, 0
	pushl_cfi %ds
	.cfi_restore_iret_ds_or_offset -4
	pushl_cfi %es
	.cfi_restore_iret_es_or_offset -8
	pushl_cfi %fs
	.cfi_restore_iret_fs_or_offset -12
	movw   $(SEGMENT_USER_DATA_RPL), %ax
	movw   %ax, %ds
	movw   %ax, %es
	movw   $(SEGMENT_KERNEL_FSBASE), %ax
	movw   %ax, %fs
	pushl_cfi_r %edx
	pushl_cfi_r %ecx  /* Arg #1 */
	pushl_cfi_r %ebx  /* Arg #0 */
	EXTERN(sys_munmap)
	call   sys_munmap
	popl_cfi_r %ebx
	popl_cfi_r %ecx
	popl_cfi_r %edx
	popl_cfi %fs
	.cfi_restore_iret_fs
	popl_cfi %es
	.cfi_restore_iret_es
	popl_cfi %ds
	.cfi_restore_iret_ds
	iret
	.cfi_endproc
END(__x86_asm32_int80_munmap)

/* errno_t truncate(char const *filename, syscall_ulong_t length) */
.section .text.x86.asm32_syscall_int80.truncate
INTERN_WEAK_FUNCTION(__x86_asm32_int80_truncate)
	.cfi_startproc simple
	.cfi_personality 0, x86_syscall_personality_asm32_int80
	.cfi_lsda 0, 0x5c
	.cfi_iret_signal_frame
	.cfi_def_cfa %esp, 0
	pushl_cfi %ds
	.cfi_restore_iret_ds_or_offset -4
	pushl_cfi %es
	.cfi_restore_iret_es_or_offset -8
	pushl_cfi %fs
	.cfi_restore_iret_fs_or_offset -12
	movw   $(SEGMENT_USER_DATA_RPL), %ax
	movw   %ax, %ds
	movw   %ax, %es
	movw   $(SEGMENT_KERNEL_FSBASE), %ax
	movw   %ax, %fs
	pushl_cfi_r %edx
	pushl_cfi_r %ecx  /* Arg #1 */
	pushl_cfi_r %ebx  /* Arg #0 */
	EXTERN(sys_truncate)
	call   sys_truncate
	popl_cfi_r %ebx
	popl_cfi_r %ecx
	popl_cfi_r %edx
	popl_cfi %fs
	.cfi_restore_iret_fs
	popl_cfi %es
	.cfi_restore_iret_es
	popl_cfi %ds
	.cfi_restore_iret_ds
	iret
	.cfi_endproc
END(__x86_asm32_int80_truncate)

/* errno_t ftruncate(fd_t fd, syscall_ulong_t length) */
.section .text.x86.asm32_syscall_int80.ftruncate
INTERN_WEAK_FUNCTION(__x86_asm32_int80_ftruncate)
	.cfi_startproc simple
	.cfi_personality 0, x86_syscall_personality_asm32_int80
	.cfi_lsda 0, 0x5d
	.cfi_iret_signal_frame
	.cfi_def_cfa %esp, 0
	pushl_cfi %ds
	.cfi_restore_iret_ds_or_offset -4
	pushl_cfi %es
	.cfi_restore_iret_es_or_offset -8
	pushl_cfi %fs
	.cfi_restore_iret_fs_or_offset -12
	movw   $(SEGMENT_USER_DATA_RPL), %ax
	movw   %ax, %ds
	movw   %ax, %es
	movw   $(SEGMENT_KERNEL_FSBASE), %ax
	movw   %ax, %fs
	pushl_cfi_r %edx
	pushl_cfi_r %ecx  /* Arg #1 */
	pushl_cfi_r %ebx  /* Arg #0 */
	EXTERN(sys_ftruncate)
	call   sys_ftruncate
	popl_cfi_r %ebx
	popl_cfi_r %ecx
	popl_cfi_r %edx
	popl_cfi %fs
	.cfi_restore_iret_fs
	popl_cfi %es
	.cfi_restore_iret_es
	popl_cfi %ds
	.cfi_restore_iret_ds
	iret
	.cfi_endproc
END(__x86_asm32_int80_ftruncate)

/* errno_t fchmod(fd_t fd, mode_t mode) */
.section .text.x86.asm32_syscall_int80.fchmod
INTERN_WEAK_FUNCTION(__x86_asm32_int80_fchmod)
	.cfi_startproc simple
	.cfi_personality 0, x86_syscall_personality_asm32_int80
	.cfi_lsda 0, 0x5e
	.cfi_iret_signal_frame
	.cfi_def_cfa %esp, 0
	pushl_cfi %ds
	.cfi_restore_iret_ds_or_offset -4
	pushl_cfi %es
	.cfi_restore_iret_es_or_offset -8
	pushl_cfi %fs
	.cfi_restore_iret_fs_or_offset -12
	movw   $(SEGMENT_USER_DATA_RPL), %ax
	movw   %ax, %ds
	movw   %ax, %es
	movw   $(SEGMENT_KERNEL_FSBASE), %ax
	movw   %ax, %fs
	pushl_cfi_r %edx
	pushl_cfi_r %ecx  /* Arg #1 */
	pushl_cfi_r %ebx  /* Arg #0 */
	EXTERN(sys_fchmod)
	call   sys_fchmod
	popl_cfi_r %ebx
	popl_cfi_r %ecx
	popl_cfi_r %edx
	popl_cfi %fs
	.cfi_restore_iret_fs
	popl_cfi %es
	.cfi_restore_iret_es
	popl_cfi %ds
	.cfi_restore_iret_ds
	iret
	.cfi_endproc
END(__x86_asm32_int80_fchmod)

/* errno_t fchown(fd_t fd, uint16_t owner, uint16_t group) */
.section .text.x86.asm32_syscall_int80.fchown
INTERN_WEAK_FUNCTION(__x86_asm32_int80_fchown)
	.cfi_startproc simple
	.cfi_personality 0, x86_syscall_personality_asm32_int80
	.cfi_lsda 0, 0x5f
	.cfi_iret_signal_frame
	.cfi_def_cfa %esp, 0
	pushl_cfi %ds
	.cfi_restore_iret_ds_or_offset -4
	pushl_cfi %es
	.cfi_restore_iret_es_or_offset -8
	pushl_cfi %fs
	.cfi_restore_iret_fs_or_offset -12
	movw   $(SEGMENT_USER_DATA_RPL), %ax
	movw   %ax, %ds
	movw   %ax, %es
	movw   $(SEGMENT_KERNEL_FSBASE), %ax
	movw   %ax, %fs
	pushl_cfi_r %edx  /* Arg #2 */
	pushl_cfi_r %ecx  /* Arg #1 */
	pushl_cfi_r %ebx  /* Arg #0 */
	EXTERN(sys_fchown)
	call   sys_fchown
	popl_cfi_r %ebx
	popl_cfi_r %ecx
	popl_cfi_r %edx
	popl_cfi %fs
	.cfi_restore_iret_fs
	popl_cfi %es
	.cfi_restore_iret_es
	popl_cfi %ds
	.cfi_restore_iret_ds
	iret
	.cfi_endproc
END(__x86_asm32_int80_fchown)

/* @param: which: One of `PRIO_PROCESS', `PRIO_PGRP' or `PRIO_USER' */
/* syscall_slong_t getpriority(syscall_ulong_t which, id_t who) */
.section .text.x86.asm32_syscall_int80.getpriority
INTERN_WEAK_FUNCTION(__x86_asm32_int80_getpriority)
	.cfi_startproc simple
	.cfi_personality 0, x86_syscall_personality_asm32_int80
	.cfi_lsda 0, 0x60
	.cfi_iret_signal_frame
	.cfi_def_cfa %esp, 0
	pushl_cfi %ds
	.cfi_restore_iret_ds_or_offset -4
	pushl_cfi %es
	.cfi_restore_iret_es_or_offset -8
	pushl_cfi %fs
	.cfi_restore_iret_fs_or_offset -12
	movw   $(SEGMENT_USER_DATA_RPL), %ax
	movw   %ax, %ds
	movw   %ax, %es
	movw   $(SEGMENT_KERNEL_FSBASE), %ax
	movw   %ax, %fs
	pushl_cfi_r %edx
	pushl_cfi_r %ecx  /* Arg #1 */
	pushl_cfi_r %ebx  /* Arg #0 */
	EXTERN(sys_getpriority)
	call   sys_getpriority
	popl_cfi_r %ebx
	popl_cfi_r %ecx
	popl_cfi_r %edx
	popl_cfi %fs
	.cfi_restore_iret_fs
	popl_cfi %es
	.cfi_restore_iret_es
	popl_cfi %ds
	.cfi_restore_iret_ds
	iret
	.cfi_endproc
END(__x86_asm32_int80_getpriority)

/* @param: which: One of `PRIO_PROCESS', `PRIO_PGRP' or `PRIO_USER' */
/* errno_t setpriority(syscall_ulong_t which, id_t who, syscall_ulong_t value) */
.section .text.x86.asm32_syscall_int80.setpriority
INTERN_WEAK_FUNCTION(__x86_asm32_int80_setpriority)
	.cfi_startproc simple
	.cfi_personality 0, x86_syscall_personality_asm32_int80
	.cfi_lsda 0, 0x61
	.cfi_iret_signal_frame
	.cfi_def_cfa %esp, 0
	pushl_cfi %ds
	.cfi_restore_iret_ds_or_offset -4
	pushl_cfi %es
	.cfi_restore_iret_es_or_offset -8
	pushl_cfi %fs
	.cfi_restore_iret_fs_or_offset -12
	movw   $(SEGMENT_USER_DATA_RPL), %ax
	movw   %ax, %ds
	movw   %ax, %es
	movw   $(SEGMENT_KERNEL_FSBASE), %ax
	movw   %ax, %fs
	pushl_cfi_r %edx  /* Arg #2 */
	pushl_cfi_r %ecx  /* Arg #1 */
	pushl_cfi_r %ebx  /* Arg #0 */
	EXTERN(sys_setpriority)
	call   sys_setpriority
	popl_cfi_r %ebx
	popl_cfi_r %ecx
	popl_cfi_r %edx
	popl_cfi %fs
	.cfi_restore_iret_fs
	popl_cfi %es
	.cfi_restore_iret_es
	popl_cfi %ds
	.cfi_restore_iret_ds
	iret
	.cfi_endproc
END(__x86_asm32_int80_setpriority)

/* errno_t profil(void) */
.section .text.x86.asm32_syscall_int80.profil
INTERN_WEAK_FUNCTION(__x86_asm32_int80_profil)
	.cfi_startproc simple
	.cfi_personality 0, x86_syscall_personality_asm32_int80
	.cfi_lsda 0, 0x62
	.cfi_iret_signal_frame
	.cfi_def_cfa %esp, 0
	pushl_cfi %ds
	.cfi_restore_iret_ds_or_offset -4
	pushl_cfi %es
	.cfi_restore_iret_es_or_offset -8
	pushl_cfi %fs
	.cfi_restore_iret_fs_or_offset -12
	movw   $(SEGMENT_USER_DATA_RPL), %ax
	movw   %ax, %ds
	movw   %ax, %es
	movw   $(SEGMENT_KERNEL_FSBASE), %ax
	movw   %ax, %fs
	pushl_cfi_r %ecx
	pushl_cfi_r %edx
	EXTERN(sys_profil)
	call   sys_profil
	popl_cfi_r %edx
	popl_cfi_r %ecx
	popl_cfi %fs
	.cfi_restore_iret_fs
	popl_cfi %es
	.cfi_restore_iret_es
	popl_cfi %ds
	.cfi_restore_iret_ds
	iret
	.cfi_endproc
END(__x86_asm32_int80_profil)

/* errno_t statfs(char const *file, struct __statfsx32 *buf) */
.section .text.x86.asm32_syscall_int80.statfs
INTERN_WEAK_FUNCTION(__x86_asm32_int80_statfs)
	.cfi_startproc simple
	.cfi_personality 0, x86_syscall_personality_asm32_int80
	.cfi_lsda 0, 0x63
	.cfi_iret_signal_frame
	.cfi_def_cfa %esp, 0
	pushl_cfi %ds
	.cfi_restore_iret_ds_or_offset -4
	pushl_cfi %es
	.cfi_restore_iret_es_or_offset -8
	pushl_cfi %fs
	.cfi_restore_iret_fs_or_offset -12
	movw   $(SEGMENT_USER_DATA_RPL), %ax
	movw   %ax, %ds
	movw   %ax, %es
	movw   $(SEGMENT_KERNEL_FSBASE), %ax
	movw   %ax, %fs
	pushl_cfi_r %edx
	pushl_cfi_r %ecx  /* Arg #1 */
	pushl_cfi_r %ebx  /* Arg #0 */
	EXTERN(sys_statfs)
	call   sys_statfs
	popl_cfi_r %ebx
	popl_cfi_r %ecx
	popl_cfi_r %edx
	popl_cfi %fs
	.cfi_restore_iret_fs
	popl_cfi %es
	.cfi_restore_iret_es
	popl_cfi %ds
	.cfi_restore_iret_ds
	iret
	.cfi_endproc
END(__x86_asm32_int80_statfs)

/* errno_t fstatfs(fd_t file, struct __statfsx32 *buf) */
.section .text.x86.asm32_syscall_int80.fstatfs
INTERN_WEAK_FUNCTION(__x86_asm32_int80_fstatfs)
	.cfi_startproc simple
	.cfi_personality 0, x86_syscall_personality_asm32_int80
	.cfi_lsda 0, 0x64
	.cfi_iret_signal_frame
	.cfi_def_cfa %esp, 0
	pushl_cfi %ds
	.cfi_restore_iret_ds_or_offset -4
	pushl_cfi %es
	.cfi_restore_iret_es_or_offset -8
	pushl_cfi %fs
	.cfi_restore_iret_fs_or_offset -12
	movw   $(SEGMENT_USER_DATA_RPL), %ax
	movw   %ax, %ds
	movw   %ax, %es
	movw   $(SEGMENT_KERNEL_FSBASE), %ax
	movw   %ax, %fs
	pushl_cfi_r %edx
	pushl_cfi_r %ecx  /* Arg #1 */
	pushl_cfi_r %ebx  /* Arg #0 */
	EXTERN(sys_fstatfs)
	call   sys_fstatfs
	popl_cfi_r %ebx
	popl_cfi_r %ecx
	popl_cfi_r %edx
	popl_cfi %fs
	.cfi_restore_iret_fs
	popl_cfi %es
	.cfi_restore_iret_es
	popl_cfi %ds
	.cfi_restore_iret_ds
	iret
	.cfi_endproc
END(__x86_asm32_int80_fstatfs)

/* errno_t ioperm(syscall_ulong_t from, syscall_ulong_t num, syscall_ulong_t turn_on) */
.section .text.x86.asm32_syscall_int80.ioperm
INTERN_WEAK_FUNCTION(__x86_asm32_int80_ioperm)
	.cfi_startproc simple
	.cfi_personality 0, x86_syscall_personality_asm32_int80
	.cfi_lsda 0, 0x65
	.cfi_iret_signal_frame
	.cfi_def_cfa %esp, 0
	pushl_cfi %ds
	.cfi_restore_iret_ds_or_offset -4
	pushl_cfi %es
	.cfi_restore_iret_es_or_offset -8
	pushl_cfi %fs
	.cfi_restore_iret_fs_or_offset -12
	movw   $(SEGMENT_USER_DATA_RPL), %ax
	movw   %ax, %ds
	movw   %ax, %es
	movw   $(SEGMENT_KERNEL_FSBASE), %ax
	movw   %ax, %fs
	pushl_cfi_r %edx  /* Arg #2 */
	pushl_cfi_r %ecx  /* Arg #1 */
	pushl_cfi_r %ebx  /* Arg #0 */
	EXTERN(sys_ioperm)
	call   sys_ioperm
	popl_cfi_r %ebx
	popl_cfi_r %ecx
	popl_cfi_r %edx
	popl_cfi %fs
	.cfi_restore_iret_fs
	popl_cfi %es
	.cfi_restore_iret_es
	popl_cfi %ds
	.cfi_restore_iret_ds
	iret
	.cfi_endproc
END(__x86_asm32_int80_ioperm)

/* __LONG32_TYPE__ socketcall(__ULONG32_TYPE__ call, __ULONG32_TYPE__ *args) */
.section .text.x86.asm32_syscall_int80.socketcall
INTERN_WEAK_FUNCTION(__x86_asm32_int80_socketcall)
	.cfi_startproc simple
	.cfi_personality 0, x86_syscall_personality_asm32_int80
	.cfi_lsda 0, 0x66
	.cfi_iret_signal_frame
	.cfi_def_cfa %esp, 0
	pushl_cfi %ds
	.cfi_restore_iret_ds_or_offset -4
	pushl_cfi %es
	.cfi_restore_iret_es_or_offset -8
	pushl_cfi %fs
	.cfi_restore_iret_fs_or_offset -12
	movw   $(SEGMENT_USER_DATA_RPL), %ax
	movw   %ax, %ds
	movw   %ax, %es
	movw   $(SEGMENT_KERNEL_FSBASE), %ax
	movw   %ax, %fs
	pushl_cfi_r %edx
	pushl_cfi_r %ecx  /* Arg #1 */
	pushl_cfi_r %ebx  /* Arg #0 */
	EXTERN(sys_socketcall)
	call   sys_socketcall
	popl_cfi_r %ebx
	popl_cfi_r %ecx
	popl_cfi_r %edx
	popl_cfi %fs
	.cfi_restore_iret_fs
	popl_cfi %es
	.cfi_restore_iret_es
	popl_cfi %ds
	.cfi_restore_iret_ds
	iret
	.cfi_endproc
END(__x86_asm32_int80_socketcall)

/* ssize_t syslog(syscall_ulong_t level, char const *str, size_t len) */
.section .text.x86.asm32_syscall_int80.syslog
INTERN_WEAK_FUNCTION(__x86_asm32_int80_syslog)
	.cfi_startproc simple
	.cfi_personality 0, x86_syscall_personality_asm32_int80
	.cfi_lsda 0, 0x67
	.cfi_iret_signal_frame
	.cfi_def_cfa %esp, 0
	pushl_cfi %ds
	.cfi_restore_iret_ds_or_offset -4
	pushl_cfi %es
	.cfi_restore_iret_es_or_offset -8
	pushl_cfi %fs
	.cfi_restore_iret_fs_or_offset -12
	movw   $(SEGMENT_USER_DATA_RPL), %ax
	movw   %ax, %ds
	movw   %ax, %es
	movw   $(SEGMENT_KERNEL_FSBASE), %ax
	movw   %ax, %fs
	pushl_cfi_r %edx  /* Arg #2 */
	pushl_cfi_r %ecx  /* Arg #1 */
	pushl_cfi_r %ebx  /* Arg #0 */
	EXTERN(sys_syslog)
	call   sys_syslog
	popl_cfi_r %ebx
	popl_cfi_r %ecx
	popl_cfi_r %edx
	popl_cfi %fs
	.cfi_restore_iret_fs
	popl_cfi %es
	.cfi_restore_iret_es
	popl_cfi %ds
	.cfi_restore_iret_ds
	iret
	.cfi_endproc
END(__x86_asm32_int80_syslog)

/* @param: which: One of `ITIMER_REAL', `ITIMER_VIRTUAL' or `ITIMER_PROF' */
/* errno_t setitimer(syscall_ulong_t which, struct __itimervalx32 const *newval, struct __itimervalx32 *oldval) */
.section .text.x86.asm32_syscall_int80.setitimer
INTERN_WEAK_FUNCTION(__x86_asm32_int80_setitimer)
	.cfi_startproc simple
	.cfi_personality 0, x86_syscall_personality_asm32_int80
	.cfi_lsda 0, 0x68
	.cfi_iret_signal_frame
	.cfi_def_cfa %esp, 0
	pushl_cfi %ds
	.cfi_restore_iret_ds_or_offset -4
	pushl_cfi %es
	.cfi_restore_iret_es_or_offset -8
	pushl_cfi %fs
	.cfi_restore_iret_fs_or_offset -12
	movw   $(SEGMENT_USER_DATA_RPL), %ax
	movw   %ax, %ds
	movw   %ax, %es
	movw   $(SEGMENT_KERNEL_FSBASE), %ax
	movw   %ax, %fs
	pushl_cfi_r %edx  /* Arg #2 */
	pushl_cfi_r %ecx  /* Arg #1 */
	pushl_cfi_r %ebx  /* Arg #0 */
	EXTERN(sys_setitimer)
	call   sys_setitimer
	popl_cfi_r %ebx
	popl_cfi_r %ecx
	popl_cfi_r %edx
	popl_cfi %fs
	.cfi_restore_iret_fs
	popl_cfi %es
	.cfi_restore_iret_es
	popl_cfi %ds
	.cfi_restore_iret_ds
	iret
	.cfi_endproc
END(__x86_asm32_int80_setitimer)

/* @param: which: One of `ITIMER_REAL', `ITIMER_VIRTUAL' or `ITIMER_PROF' */
/* errno_t getitimer(syscall_ulong_t which, struct __itimervalx32 *curr_value) */
.section .text.x86.asm32_syscall_int80.getitimer
INTERN_WEAK_FUNCTION(__x86_asm32_int80_getitimer)
	.cfi_startproc simple
	.cfi_personality 0, x86_syscall_personality_asm32_int80
	.cfi_lsda 0, 0x69
	.cfi_iret_signal_frame
	.cfi_def_cfa %esp, 0
	pushl_cfi %ds
	.cfi_restore_iret_ds_or_offset -4
	pushl_cfi %es
	.cfi_restore_iret_es_or_offset -8
	pushl_cfi %fs
	.cfi_restore_iret_fs_or_offset -12
	movw   $(SEGMENT_USER_DATA_RPL), %ax
	movw   %ax, %ds
	movw   %ax, %es
	movw   $(SEGMENT_KERNEL_FSBASE), %ax
	movw   %ax, %fs
	pushl_cfi_r %edx
	pushl_cfi_r %ecx  /* Arg #1 */
	pushl_cfi_r %ebx  /* Arg #0 */
	EXTERN(sys_getitimer)
	call   sys_getitimer
	popl_cfi_r %ebx
	popl_cfi_r %ecx
	popl_cfi_r %edx
	popl_cfi %fs
	.cfi_restore_iret_fs
	popl_cfi %es
	.cfi_restore_iret_es
	popl_cfi %ds
	.cfi_restore_iret_ds
	iret
	.cfi_endproc
END(__x86_asm32_int80_getitimer)

/* errno_t stat(char const *filename, struct linux_statx32 *statbuf) */
.section .text.x86.asm32_syscall_int80.stat
INTERN_WEAK_FUNCTION(__x86_asm32_int80_stat)
	.cfi_startproc simple
	.cfi_personality 0, x86_syscall_personality_asm32_int80
	.cfi_lsda 0, 0x6a
	.cfi_iret_signal_frame
	.cfi_def_cfa %esp, 0
	pushl_cfi %ds
	.cfi_restore_iret_ds_or_offset -4
	pushl_cfi %es
	.cfi_restore_iret_es_or_offset -8
	pushl_cfi %fs
	.cfi_restore_iret_fs_or_offset -12
	movw   $(SEGMENT_USER_DATA_RPL), %ax
	movw   %ax, %ds
	movw   %ax, %es
	movw   $(SEGMENT_KERNEL_FSBASE), %ax
	movw   %ax, %fs
	pushl_cfi_r %edx
	pushl_cfi_r %ecx  /* Arg #1 */
	pushl_cfi_r %ebx  /* Arg #0 */
	EXTERN(sys_stat)
	call   sys_stat
	popl_cfi_r %ebx
	popl_cfi_r %ecx
	popl_cfi_r %edx
	popl_cfi %fs
	.cfi_restore_iret_fs
	popl_cfi %es
	.cfi_restore_iret_es
	popl_cfi %ds
	.cfi_restore_iret_ds
	iret
	.cfi_endproc
END(__x86_asm32_int80_stat)

/* errno_t lstat(char const *filename, struct linux_statx32 *statbuf) */
.section .text.x86.asm32_syscall_int80.lstat
INTERN_WEAK_FUNCTION(__x86_asm32_int80_lstat)
	.cfi_startproc simple
	.cfi_personality 0, x86_syscall_personality_asm32_int80
	.cfi_lsda 0, 0x6b
	.cfi_iret_signal_frame
	.cfi_def_cfa %esp, 0
	pushl_cfi %ds
	.cfi_restore_iret_ds_or_offset -4
	pushl_cfi %es
	.cfi_restore_iret_es_or_offset -8
	pushl_cfi %fs
	.cfi_restore_iret_fs_or_offset -12
	movw   $(SEGMENT_USER_DATA_RPL), %ax
	movw   %ax, %ds
	movw   %ax, %es
	movw   $(SEGMENT_KERNEL_FSBASE), %ax
	movw   %ax, %fs
	pushl_cfi_r %edx
	pushl_cfi_r %ecx  /* Arg #1 */
	pushl_cfi_r %ebx  /* Arg #0 */
	EXTERN(sys_lstat)
	call   sys_lstat
	popl_cfi_r %ebx
	popl_cfi_r %ecx
	popl_cfi_r %edx
	popl_cfi %fs
	.cfi_restore_iret_fs
	popl_cfi %es
	.cfi_restore_iret_es
	popl_cfi %ds
	.cfi_restore_iret_ds
	iret
	.cfi_endproc
END(__x86_asm32_int80_lstat)

/* errno_t fstat(fd_t fd, struct linux_statx32 *statbuf) */
.section .text.x86.asm32_syscall_int80.fstat
INTERN_WEAK_FUNCTION(__x86_asm32_int80_fstat)
	.cfi_startproc simple
	.cfi_personality 0, x86_syscall_personality_asm32_int80
	.cfi_lsda 0, 0x6c
	.cfi_iret_signal_frame
	.cfi_def_cfa %esp, 0
	pushl_cfi %ds
	.cfi_restore_iret_ds_or_offset -4
	pushl_cfi %es
	.cfi_restore_iret_es_or_offset -8
	pushl_cfi %fs
	.cfi_restore_iret_fs_or_offset -12
	movw   $(SEGMENT_USER_DATA_RPL), %ax
	movw   %ax, %ds
	movw   %ax, %es
	movw   $(SEGMENT_KERNEL_FSBASE), %ax
	movw   %ax, %fs
	pushl_cfi_r %edx
	pushl_cfi_r %ecx  /* Arg #1 */
	pushl_cfi_r %ebx  /* Arg #0 */
	EXTERN(sys_fstat)
	call   sys_fstat
	popl_cfi_r %ebx
	popl_cfi_r %ecx
	popl_cfi_r %edx
	popl_cfi %fs
	.cfi_restore_iret_fs
	popl_cfi %es
	.cfi_restore_iret_es
	popl_cfi %ds
	.cfi_restore_iret_ds
	iret
	.cfi_endproc
END(__x86_asm32_int80_fstat)

/* errno_t olduname(struct linux_olduname *name) */
.section .text.x86.asm32_syscall_int80.olduname
INTERN_WEAK_FUNCTION(__x86_asm32_int80_olduname)
	.cfi_startproc simple
	.cfi_personality 0, x86_syscall_personality_asm32_int80
	.cfi_lsda 0, 0x6d
	.cfi_iret_signal_frame
	.cfi_def_cfa %esp, 0
	pushl_cfi %ds
	.cfi_restore_iret_ds_or_offset -4
	pushl_cfi %es
	.cfi_restore_iret_es_or_offset -8
	pushl_cfi %fs
	.cfi_restore_iret_fs_or_offset -12
	movw   $(SEGMENT_USER_DATA_RPL), %ax
	movw   %ax, %ds
	movw   %ax, %es
	movw   $(SEGMENT_KERNEL_FSBASE), %ax
	movw   %ax, %fs
	pushl_cfi_r %ecx
	pushl_cfi_r %edx
	pushl_cfi_r %ebx  /* Arg #0 */
	EXTERN(sys_olduname)
	call   sys_olduname
	popl_cfi_r %ebx
	popl_cfi_r %edx
	popl_cfi_r %ecx
	popl_cfi %fs
	.cfi_restore_iret_fs
	popl_cfi %es
	.cfi_restore_iret_es
	popl_cfi %ds
	.cfi_restore_iret_ds
	iret
	.cfi_endproc
END(__x86_asm32_int80_olduname)

/* errno_t iopl(syscall_ulong_t level) */
.section .text.x86.asm32_syscall_int80.iopl
INTERN_WEAK_FUNCTION(__x86_asm32_int80_iopl)
	.cfi_startproc simple
	.cfi_personality 0, x86_syscall_personality_asm32_int80
	.cfi_lsda 0, 0x6e
	.cfi_iret_signal_frame
	.cfi_def_cfa %esp, 0
	pushl_cfi %ds
	.cfi_restore_iret_ds_or_offset -4
	pushl_cfi %es
	.cfi_restore_iret_es_or_offset -8
	pushl_cfi %fs
	.cfi_restore_iret_fs_or_offset -12
	movw   $(SEGMENT_USER_DATA_RPL), %ax
	movw   %ax, %ds
	movw   %ax, %es
	movw   $(SEGMENT_KERNEL_FSBASE), %ax
	movw   %ax, %fs
	pushl_cfi_r %ecx
	pushl_cfi_r %edx
	pushl_cfi_r %ebx  /* Arg #0 */
	EXTERN(sys_iopl)
	call   sys_iopl
	popl_cfi_r %ebx
	popl_cfi_r %edx
	popl_cfi_r %ecx
	popl_cfi %fs
	.cfi_restore_iret_fs
	popl_cfi %es
	.cfi_restore_iret_es
	popl_cfi %ds
	.cfi_restore_iret_ds
	iret
	.cfi_endproc
END(__x86_asm32_int80_iopl)

/* errno_t vhangup(void) */
.section .text.x86.asm32_syscall_int80.vhangup
INTERN_WEAK_FUNCTION(__x86_asm32_int80_vhangup)
	.cfi_startproc simple
	.cfi_personality 0, x86_syscall_personality_asm32_int80
	.cfi_lsda 0, 0x6f
	.cfi_iret_signal_frame
	.cfi_def_cfa %esp, 0
	pushl_cfi %ds
	.cfi_restore_iret_ds_or_offset -4
	pushl_cfi %es
	.cfi_restore_iret_es_or_offset -8
	pushl_cfi %fs
	.cfi_restore_iret_fs_or_offset -12
	movw   $(SEGMENT_USER_DATA_RPL), %ax
	movw   %ax, %ds
	movw   %ax, %es
	movw   $(SEGMENT_KERNEL_FSBASE), %ax
	movw   %ax, %fs
	pushl_cfi_r %ecx
	pushl_cfi_r %edx
	EXTERN(sys_vhangup)
	call   sys_vhangup
	popl_cfi_r %edx
	popl_cfi_r %ecx
	popl_cfi %fs
	.cfi_restore_iret_fs
	popl_cfi %es
	.cfi_restore_iret_es
	popl_cfi %ds
	.cfi_restore_iret_ds
	iret
	.cfi_endproc
END(__x86_asm32_int80_vhangup)

/* errno_t idle(void) */
.section .text.x86.asm32_syscall_int80.idle
INTERN_WEAK_FUNCTION(__x86_asm32_int80_idle)
	.cfi_startproc simple
	.cfi_personality 0, x86_syscall_personality_asm32_int80
	.cfi_lsda 0, 0x70
	.cfi_iret_signal_frame
	.cfi_def_cfa %esp, 0
	pushl_cfi %ds
	.cfi_restore_iret_ds_or_offset -4
	pushl_cfi %es
	.cfi_restore_iret_es_or_offset -8
	pushl_cfi %fs
	.cfi_restore_iret_fs_or_offset -12
	movw   $(SEGMENT_USER_DATA_RPL), %ax
	movw   %ax, %ds
	movw   %ax, %es
	movw   $(SEGMENT_KERNEL_FSBASE), %ax
	movw   %ax, %fs
	pushl_cfi_r %ecx
	pushl_cfi_r %edx
	EXTERN(sys_idle)
	call   sys_idle
	popl_cfi_r %edx
	popl_cfi_r %ecx
	popl_cfi %fs
	.cfi_restore_iret_fs
	popl_cfi %es
	.cfi_restore_iret_es
	popl_cfi %ds
	.cfi_restore_iret_ds
	iret
	.cfi_endproc
END(__x86_asm32_int80_idle)

/* errno_t vm86old(int TODO_PROTOTYPE) */
.section .text.x86.asm32_syscall_int80.vm86old
INTERN_WEAK_FUNCTION(__x86_asm32_int80_vm86old)
	.cfi_startproc simple
	.cfi_personality 0, x86_syscall_personality_asm32_int80
	.cfi_lsda 0, 0x71
	.cfi_iret_signal_frame
	.cfi_def_cfa %esp, 0
	pushl_cfi %ds
	.cfi_restore_iret_ds_or_offset -4
	pushl_cfi %es
	.cfi_restore_iret_es_or_offset -8
	pushl_cfi %fs
	.cfi_restore_iret_fs_or_offset -12
	movw   $(SEGMENT_USER_DATA_RPL), %ax
	movw   %ax, %ds
	movw   %ax, %es
	movw   $(SEGMENT_KERNEL_FSBASE), %ax
	movw   %ax, %fs
	pushl_cfi_r %ecx
	pushl_cfi_r %edx
	pushl_cfi_r %ebx  /* Arg #0 */
	EXTERN(sys_vm86old)
	call   sys_vm86old
	popl_cfi_r %ebx
	popl_cfi_r %edx
	popl_cfi_r %ecx
	popl_cfi %fs
	.cfi_restore_iret_fs
	popl_cfi %es
	.cfi_restore_iret_es
	popl_cfi %ds
	.cfi_restore_iret_ds
	iret
	.cfi_endproc
END(__x86_asm32_int80_vm86old)

/* Same as `waitpid(pid, STAT_LOC, OPTIONS)', though also fills in `USAGE' when non-NULL
 * @param: options: Set of `WNOHANG | WUNTRACED | WCONTINUED' (as a KOS extension, `WNOWAIT' is also accepted) */
/* pid_t wait4(pid_t pid, int32_t *stat_loc, syscall_ulong_t options, struct rusagex32 *usage) */
.section .text.x86.asm32_syscall_int80.wait4
INTERN_WEAK_FUNCTION(__x86_asm32_int80_wait4)
	.cfi_startproc simple
	.cfi_personality 0, x86_syscall_personality_asm32_int80
	.cfi_lsda 0, 0x72
	.cfi_iret_signal_frame
	.cfi_def_cfa %esp, 0
	pushl_cfi %ds
	.cfi_restore_iret_ds_or_offset -4
	pushl_cfi %es
	.cfi_restore_iret_es_or_offset -8
	pushl_cfi %fs
	.cfi_restore_iret_fs_or_offset -12
	movw   $(SEGMENT_USER_DATA_RPL), %ax
	movw   %ax, %ds
	movw   %ax, %es
	movw   $(SEGMENT_KERNEL_FSBASE), %ax
	movw   %ax, %fs
	pushl_cfi_r %esi  /* Arg #3 */
	pushl_cfi_r %edx  /* Arg #2 */
	pushl_cfi_r %ecx  /* Arg #1 */
	pushl_cfi_r %ebx  /* Arg #0 */
	EXTERN(sys_wait4)
	call   sys_wait4
	popl_cfi_r %ebx
	popl_cfi_r %ecx
	popl_cfi_r %edx
	popl_cfi_r %esi
	popl_cfi %fs
	.cfi_restore_iret_fs
	popl_cfi %es
	.cfi_restore_iret_es
	popl_cfi %ds
	.cfi_restore_iret_ds
	iret
	.cfi_endproc
END(__x86_asm32_int80_wait4)

/* errno_t swapoff(char const *pathname) */
.section .text.x86.asm32_syscall_int80.swapoff
INTERN_WEAK_FUNCTION(__x86_asm32_int80_swapoff)
	.cfi_startproc simple
	.cfi_personality 0, x86_syscall_personality_asm32_int80
	.cfi_lsda 0, 0x73
	.cfi_iret_signal_frame
	.cfi_def_cfa %esp, 0
	pushl_cfi %ds
	.cfi_restore_iret_ds_or_offset -4
	pushl_cfi %es
	.cfi_restore_iret_es_or_offset -8
	pushl_cfi %fs
	.cfi_restore_iret_fs_or_offset -12
	movw   $(SEGMENT_USER_DATA_RPL), %ax
	movw   %ax, %ds
	movw   %ax, %es
	movw   $(SEGMENT_KERNEL_FSBASE), %ax
	movw   %ax, %fs
	pushl_cfi_r %ecx
	pushl_cfi_r %edx
	pushl_cfi_r %ebx  /* Arg #0 */
	EXTERN(sys_swapoff)
	call   sys_swapoff
	popl_cfi_r %ebx
	popl_cfi_r %edx
	popl_cfi_r %ecx
	popl_cfi %fs
	.cfi_restore_iret_fs
	popl_cfi %es
	.cfi_restore_iret_es
	popl_cfi %ds
	.cfi_restore_iret_ds
	iret
	.cfi_endproc
END(__x86_asm32_int80_swapoff)

/* errno_t sysinfo(struct __sysinfox32 *info) */
.section .text.x86.asm32_syscall_int80.sysinfo
INTERN_WEAK_FUNCTION(__x86_asm32_int80_sysinfo)
	.cfi_startproc simple
	.cfi_personality 0, x86_syscall_personality_asm32_int80
	.cfi_lsda 0, 0x74
	.cfi_iret_signal_frame
	.cfi_def_cfa %esp, 0
	pushl_cfi %ds
	.cfi_restore_iret_ds_or_offset -4
	pushl_cfi %es
	.cfi_restore_iret_es_or_offset -8
	pushl_cfi %fs
	.cfi_restore_iret_fs_or_offset -12
	movw   $(SEGMENT_USER_DATA_RPL), %ax
	movw   %ax, %ds
	movw   %ax, %es
	movw   $(SEGMENT_KERNEL_FSBASE), %ax
	movw   %ax, %fs
	pushl_cfi_r %ecx
	pushl_cfi_r %edx
	pushl_cfi_r %ebx  /* Arg #0 */
	EXTERN(sys_sysinfo)
	call   sys_sysinfo
	popl_cfi_r %ebx
	popl_cfi_r %edx
	popl_cfi_r %ecx
	popl_cfi %fs
	.cfi_restore_iret_fs
	popl_cfi %es
	.cfi_restore_iret_es
	popl_cfi %ds
	.cfi_restore_iret_ds
	iret
	.cfi_endproc
END(__x86_asm32_int80_sysinfo)

/* errno_t ipc(int TODO_PROTOTYPE) */
.section .text.x86.asm32_syscall_int80.ipc
INTERN_WEAK_FUNCTION(__x86_asm32_int80_ipc)
	.cfi_startproc simple
	.cfi_personality 0, x86_syscall_personality_asm32_int80
	.cfi_lsda 0, 0x75
	.cfi_iret_signal_frame
	.cfi_def_cfa %esp, 0
	pushl_cfi %ds
	.cfi_restore_iret_ds_or_offset -4
	pushl_cfi %es
	.cfi_restore_iret_es_or_offset -8
	pushl_cfi %fs
	.cfi_restore_iret_fs_or_offset -12
	movw   $(SEGMENT_USER_DATA_RPL), %ax
	movw   %ax, %ds
	movw   %ax, %es
	movw   $(SEGMENT_KERNEL_FSBASE), %ax
	movw   %ax, %fs
	pushl_cfi_r %ecx
	pushl_cfi_r %edx
	pushl_cfi_r %ebx  /* Arg #0 */
	EXTERN(sys_ipc)
	call   sys_ipc
	popl_cfi_r %ebx
	popl_cfi_r %edx
	popl_cfi_r %ecx
	popl_cfi %fs
	.cfi_restore_iret_fs
	popl_cfi %es
	.cfi_restore_iret_es
	popl_cfi %ds
	.cfi_restore_iret_ds
	iret
	.cfi_endproc
END(__x86_asm32_int80_ipc)

/* Synchronize a file (including its descriptor which contains timestamps, and its size),
 * meaning  that  changes   to  its   data  and/or   descriptor  are   written  to   disk */
/* errno_t fsync(fd_t fd) */
.section .text.x86.asm32_syscall_int80.fsync
INTERN_WEAK_FUNCTION(__x86_asm32_int80_fsync)
	.cfi_startproc simple
	.cfi_personality 0, x86_syscall_personality_asm32_int80
	.cfi_lsda 0, 0x76
	.cfi_iret_signal_frame
	.cfi_def_cfa %esp, 0
	pushl_cfi %ds
	.cfi_restore_iret_ds_or_offset -4
	pushl_cfi %es
	.cfi_restore_iret_es_or_offset -8
	pushl_cfi %fs
	.cfi_restore_iret_fs_or_offset -12
	movw   $(SEGMENT_USER_DATA_RPL), %ax
	movw   %ax, %ds
	movw   %ax, %es
	movw   $(SEGMENT_KERNEL_FSBASE), %ax
	movw   %ax, %fs
	pushl_cfi_r %ecx
	pushl_cfi_r %edx
	pushl_cfi_r %ebx  /* Arg #0 */
	EXTERN(sys_fsync)
	call   sys_fsync
	popl_cfi_r %ebx
	popl_cfi_r %edx
	popl_cfi_r %ecx
	popl_cfi %fs
	.cfi_restore_iret_fs
	popl_cfi %es
	.cfi_restore_iret_es
	popl_cfi %ds
	.cfi_restore_iret_ds
	iret
	.cfi_endproc
END(__x86_asm32_int80_fsync)

/* void sigreturn(void) */
.section .text.x86.asm32_syscall_int80.sigreturn
INTERN_WEAK_FUNCTION(__x86_asm32_int80_sigreturn)
	.cfi_startproc simple
	.cfi_personality 0, x86_syscall_personality_asm32_int80
	.cfi_lsda 0, 0x77
	.cfi_iret_signal_frame
	.cfi_def_cfa %esp, 0
	pushl_cfi %ds
	.cfi_restore_iret_ds_or_offset -4
	pushl_cfi %es
	.cfi_restore_iret_es_or_offset -8
	pushl_cfi %fs
	.cfi_restore_iret_fs_or_offset -12
	movw   $(SEGMENT_USER_DATA_RPL), %ax
	movw   %ax, %ds
	movw   %ax, %es
	movw   $(SEGMENT_KERNEL_FSBASE), %ax
	movw   %ax, %fs
	pushl_cfi_r %ecx
	pushl_cfi_r %edx
	EXTERN(sys_sigreturn)
	call   sys_sigreturn
	popl_cfi_r %edx
	popl_cfi_r %ecx
	popl_cfi %fs
	.cfi_restore_iret_fs
	popl_cfi %es
	.cfi_restore_iret_es
	popl_cfi %ds
	.cfi_restore_iret_ds
	iret
	.cfi_endproc
END(__x86_asm32_int80_sigreturn)

/* pid_t clone(syscall_ulong_t flags, void *child_stack, pid_t *ptid, uintptr_t newtls, pid_t *ctid) */
.section .text.x86.asm32_syscall_int80.clone
INTERN_WEAK_FUNCTION(__x86_asm32_int80_clone)
	.cfi_startproc simple
	.cfi_personality 0, x86_syscall_personality_asm32_int80
	.cfi_lsda 0, 0x78
	.cfi_iret_signal_frame
	.cfi_def_cfa %esp, 0
	pushl_cfi %ds
	.cfi_restore_iret_ds_or_offset -4
	pushl_cfi %es
	.cfi_restore_iret_es_or_offset -8
	pushl_cfi %fs
	.cfi_restore_iret_fs_or_offset -12
	movw   $(SEGMENT_USER_DATA_RPL), %ax
	movw   %ax, %ds
	movw   %ax, %es
	movw   $(SEGMENT_KERNEL_FSBASE), %ax
	movw   %ax, %fs
	pushl_cfi_r %edi  /* Arg #4 */
	pushl_cfi_r %esi  /* Arg #3 */
	pushl_cfi_r %edx  /* Arg #2 */
	pushl_cfi_r %ecx  /* Arg #1 */
	pushl_cfi_r %ebx  /* Arg #0 */
	EXTERN(sys_clone)
	call   sys_clone
	popl_cfi_r %ebx
	popl_cfi_r %ecx
	popl_cfi_r %edx
	addl   $(8), %esp
	.cfi_adjust_cfa_offset -8
	popl_cfi %fs
	.cfi_restore_iret_fs
	popl_cfi %es
	.cfi_restore_iret_es
	popl_cfi %ds
	.cfi_restore_iret_ds
	iret
	.cfi_endproc
END(__x86_asm32_int80_clone)

/* errno_t setdomainname(char const *name, size_t len) */
.section .text.x86.asm32_syscall_int80.setdomainname
INTERN_WEAK_FUNCTION(__x86_asm32_int80_setdomainname)
	.cfi_startproc simple
	.cfi_personality 0, x86_syscall_personality_asm32_int80
	.cfi_lsda 0, 0x79
	.cfi_iret_signal_frame
	.cfi_def_cfa %esp, 0
	pushl_cfi %ds
	.cfi_restore_iret_ds_or_offset -4
	pushl_cfi %es
	.cfi_restore_iret_es_or_offset -8
	pushl_cfi %fs
	.cfi_restore_iret_fs_or_offset -12
	movw   $(SEGMENT_USER_DATA_RPL), %ax
	movw   %ax, %ds
	movw   %ax, %es
	movw   $(SEGMENT_KERNEL_FSBASE), %ax
	movw   %ax, %fs
	pushl_cfi_r %edx
	pushl_cfi_r %ecx  /* Arg #1 */
	pushl_cfi_r %ebx  /* Arg #0 */
	EXTERN(sys_setdomainname)
	call   sys_setdomainname
	popl_cfi_r %ebx
	popl_cfi_r %ecx
	popl_cfi_r %edx
	popl_cfi %fs
	.cfi_restore_iret_fs
	popl_cfi %es
	.cfi_restore_iret_es
	popl_cfi %ds
	.cfi_restore_iret_ds
	iret
	.cfi_endproc
END(__x86_asm32_int80_setdomainname)

/* errno_t uname(struct utsname *name) */
.section .text.x86.asm32_syscall_int80.uname
INTERN_WEAK_FUNCTION(__x86_asm32_int80_uname)
	.cfi_startproc simple
	.cfi_personality 0, x86_syscall_personality_asm32_int80
	.cfi_lsda 0, 0x7a
	.cfi_iret_signal_frame
	.cfi_def_cfa %esp, 0
	pushl_cfi %ds
	.cfi_restore_iret_ds_or_offset -4
	pushl_cfi %es
	.cfi_restore_iret_es_or_offset -8
	pushl_cfi %fs
	.cfi_restore_iret_fs_or_offset -12
	movw   $(SEGMENT_USER_DATA_RPL), %ax
	movw   %ax, %ds
	movw   %ax, %es
	movw   $(SEGMENT_KERNEL_FSBASE), %ax
	movw   %ax, %fs
	pushl_cfi_r %ecx
	pushl_cfi_r %edx
	pushl_cfi_r %ebx  /* Arg #0 */
	EXTERN(sys_uname)
	call   sys_uname
	popl_cfi_r %ebx
	popl_cfi_r %edx
	popl_cfi_r %ecx
	popl_cfi %fs
	.cfi_restore_iret_fs
	popl_cfi %es
	.cfi_restore_iret_es
	popl_cfi %ds
	.cfi_restore_iret_ds
	iret
	.cfi_endproc
END(__x86_asm32_int80_uname)

/* syscall_slong_t modify_ldt(syscall_ulong_t func, void *ptr, syscall_ulong_t bytecount) */
.section .text.x86.asm32_syscall_int80.modify_ldt
INTERN_WEAK_FUNCTION(__x86_asm32_int80_modify_ldt)
	.cfi_startproc simple
	.cfi_personality 0, x86_syscall_personality_asm32_int80
	.cfi_lsda 0, 0x7b
	.cfi_iret_signal_frame
	.cfi_def_cfa %esp, 0
	pushl_cfi %ds
	.cfi_restore_iret_ds_or_offset -4
	pushl_cfi %es
	.cfi_restore_iret_es_or_offset -8
	pushl_cfi %fs
	.cfi_restore_iret_fs_or_offset -12
	movw   $(SEGMENT_USER_DATA_RPL), %ax
	movw   %ax, %ds
	movw   %ax, %es
	movw   $(SEGMENT_KERNEL_FSBASE), %ax
	movw   %ax, %fs
	pushl_cfi_r %edx  /* Arg #2 */
	pushl_cfi_r %ecx  /* Arg #1 */
	pushl_cfi_r %ebx  /* Arg #0 */
	EXTERN(sys_modify_ldt)
	call   sys_modify_ldt
	popl_cfi_r %ebx
	popl_cfi_r %ecx
	popl_cfi_r %edx
	popl_cfi %fs
	.cfi_restore_iret_fs
	popl_cfi %es
	.cfi_restore_iret_es
	popl_cfi %ds
	.cfi_restore_iret_ds
	iret
	.cfi_endproc
END(__x86_asm32_int80_modify_ldt)

/* errno_t adjtimex(struct timex *ntx) */
.section .text.x86.asm32_syscall_int80.adjtimex
INTERN_WEAK_FUNCTION(__x86_asm32_int80_adjtimex)
	.cfi_startproc simple
	.cfi_personality 0, x86_syscall_personality_asm32_int80
	.cfi_lsda 0, 0x7c
	.cfi_iret_signal_frame
	.cfi_def_cfa %esp, 0
	pushl_cfi %ds
	.cfi_restore_iret_ds_or_offset -4
	pushl_cfi %es
	.cfi_restore_iret_es_or_offset -8
	pushl_cfi %fs
	.cfi_restore_iret_fs_or_offset -12
	movw   $(SEGMENT_USER_DATA_RPL), %ax
	movw   %ax, %ds
	movw   %ax, %es
	movw   $(SEGMENT_KERNEL_FSBASE), %ax
	movw   %ax, %fs
	pushl_cfi_r %ecx
	pushl_cfi_r %edx
	pushl_cfi_r %ebx  /* Arg #0 */
	EXTERN(sys_adjtimex)
	call   sys_adjtimex
	popl_cfi_r %ebx
	popl_cfi_r %edx
	popl_cfi_r %ecx
	popl_cfi %fs
	.cfi_restore_iret_fs
	popl_cfi %es
	.cfi_restore_iret_es
	popl_cfi %ds
	.cfi_restore_iret_ds
	iret
	.cfi_endproc
END(__x86_asm32_int80_adjtimex)

/* @param: prot: Either `PROT_NONE', or set of `PROT_EXEC | PROT_WRITE | PROT_READ | PROT_SEM | PROT_SHARED' */
/* errno_t mprotect(void *addr, size_t len, syscall_ulong_t prot) */
.section .text.x86.asm32_syscall_int80.mprotect
INTERN_WEAK_FUNCTION(__x86_asm32_int80_mprotect)
	.cfi_startproc simple
	.cfi_personality 0, x86_syscall_personality_asm32_int80
	.cfi_lsda 0, 0x7d
	.cfi_iret_signal_frame
	.cfi_def_cfa %esp, 0
	pushl_cfi %ds
	.cfi_restore_iret_ds_or_offset -4
	pushl_cfi %es
	.cfi_restore_iret_es_or_offset -8
	pushl_cfi %fs
	.cfi_restore_iret_fs_or_offset -12
	movw   $(SEGMENT_USER_DATA_RPL), %ax
	movw   %ax, %ds
	movw   %ax, %es
	movw   $(SEGMENT_KERNEL_FSBASE), %ax
	movw   %ax, %fs
	pushl_cfi_r %edx  /* Arg #2 */
	pushl_cfi_r %ecx  /* Arg #1 */
	pushl_cfi_r %ebx  /* Arg #0 */
	EXTERN(sys_mprotect)
	call   sys_mprotect
	popl_cfi_r %ebx
	popl_cfi_r %ecx
	popl_cfi_r %edx
	popl_cfi %fs
	.cfi_restore_iret_fs
	popl_cfi %es
	.cfi_restore_iret_es
	popl_cfi %ds
	.cfi_restore_iret_ds
	iret
	.cfi_endproc
END(__x86_asm32_int80_mprotect)

/* @param: how: One of `SIG_BLOCK', `SIG_UNBLOCK' or `SIG_SETMASK' */
/* errno_t sigprocmask(syscall_ulong_t how, struct __old_sigset_struct const *set, struct __old_sigset_struct *oset) */
.section .text.x86.asm32_syscall_int80.sigprocmask
INTERN_WEAK_FUNCTION(__x86_asm32_int80_sigprocmask)
	.cfi_startproc simple
	.cfi_personality 0, x86_syscall_personality_asm32_int80
	.cfi_lsda 0, 0x7e
	.cfi_iret_signal_frame
	.cfi_def_cfa %esp, 0
	pushl_cfi %ds
	.cfi_restore_iret_ds_or_offset -4
	pushl_cfi %es
	.cfi_restore_iret_es_or_offset -8
	pushl_cfi %fs
	.cfi_restore_iret_fs_or_offset -12
	movw   $(SEGMENT_USER_DATA_RPL), %ax
	movw   %ax, %ds
	movw   %ax, %es
	movw   $(SEGMENT_KERNEL_FSBASE), %ax
	movw   %ax, %fs
	pushl_cfi_r %edx  /* Arg #2 */
	pushl_cfi_r %ecx  /* Arg #1 */
	pushl_cfi_r %ebx  /* Arg #0 */
	EXTERN(sys_sigprocmask)
	call   sys_sigprocmask
	popl_cfi_r %ebx
	popl_cfi_r %ecx
	popl_cfi_r %edx
	popl_cfi %fs
	.cfi_restore_iret_fs
	popl_cfi %es
	.cfi_restore_iret_es
	popl_cfi %ds
	.cfi_restore_iret_ds
	iret
	.cfi_endproc
END(__x86_asm32_int80_sigprocmask)

/* errno_t create_module(void) */
.section .text.x86.asm32_syscall_int80.create_module
INTERN_WEAK_FUNCTION(__x86_asm32_int80_create_module)
	.cfi_startproc simple
	.cfi_personality 0, x86_syscall_personality_asm32_int80
	.cfi_lsda 0, 0x7f
	.cfi_iret_signal_frame
	.cfi_def_cfa %esp, 0
	pushl_cfi %ds
	.cfi_restore_iret_ds_or_offset -4
	pushl_cfi %es
	.cfi_restore_iret_es_or_offset -8
	pushl_cfi %fs
	.cfi_restore_iret_fs_or_offset -12
	movw   $(SEGMENT_USER_DATA_RPL), %ax
	movw   %ax, %ds
	movw   %ax, %es
	movw   $(SEGMENT_KERNEL_FSBASE), %ax
	movw   %ax, %fs
	pushl_cfi_r %ecx
	pushl_cfi_r %edx
	EXTERN(sys_create_module)
	call   sys_create_module
	popl_cfi_r %edx
	popl_cfi_r %ecx
	popl_cfi %fs
	.cfi_restore_iret_fs
	popl_cfi %es
	.cfi_restore_iret_es
	popl_cfi %ds
	.cfi_restore_iret_ds
	iret
	.cfi_endproc
END(__x86_asm32_int80_create_module)

/* Load a  kernel  driver  from an  ELF  image  `module_image...+=len'
 * This system call exists for linux compatibility, and is implemented
 * as an alias for  `KSYSCTL_DRIVER_INSMOD:KSYSCTL_DRIVER_FORMAT_BLOB'
 * 
 * Note however that that is where linux compatibility ends. Since the
 * linux kernel does not implement any semblance of a stable ABI,  you
 * have to realize that on KOS, this system call can only load drivers
 * specifically built to run within the KOS kernel!
 * @param: uargs: The driver commandline */
/* errno_t init_module(void const *module_image, size_t len, char const *uargs) */
.section .text.x86.asm32_syscall_int80.init_module
INTERN_WEAK_FUNCTION(__x86_asm32_int80_init_module)
	.cfi_startproc simple
	.cfi_personality 0, x86_syscall_personality_asm32_int80
	.cfi_lsda 0, 0x80
	.cfi_iret_signal_frame
	.cfi_def_cfa %esp, 0
	pushl_cfi %ds
	.cfi_restore_iret_ds_or_offset -4
	pushl_cfi %es
	.cfi_restore_iret_es_or_offset -8
	pushl_cfi %fs
	.cfi_restore_iret_fs_or_offset -12
	movw   $(SEGMENT_USER_DATA_RPL), %ax
	movw   %ax, %ds
	movw   %ax, %es
	movw   $(SEGMENT_KERNEL_FSBASE), %ax
	movw   %ax, %fs
	pushl_cfi_r %edx  /* Arg #2 */
	pushl_cfi_r %ecx  /* Arg #1 */
	pushl_cfi_r %ebx  /* Arg #0 */
	EXTERN(sys_init_module)
	call   sys_init_module
	popl_cfi_r %ebx
	popl_cfi_r %ecx
	popl_cfi_r %edx
	popl_cfi %fs
	.cfi_restore_iret_fs
	popl_cfi %es
	.cfi_restore_iret_es
	popl_cfi %ds
	.cfi_restore_iret_ds
	iret
	.cfi_endproc
END(__x86_asm32_int80_init_module)

/* Try to unload a driver, given its `name'
 * This system call exists for linux compatibility, and is implemented
 * as an alias for  `KSYSCTL_DRIVER_DELMOD:KSYSCTL_DRIVER_FORMAT_FILE'
 * @param: name:  The name of the driver
 * @param: flags: Set of `O_NONBLOCK | O_TRUNC', where:
 *                - O_NONBLOCK: s.a. `KSYSCTL_DRIVER_DELMOD_FNONBLOCK'
 *                - O_TRUNC:    s.a. `KSYSCTL_DRIVER_DELMOD_FFORCE' */
/* errno_t delete_module(char const *name, oflag_t flags) */
.section .text.x86.asm32_syscall_int80.delete_module
INTERN_WEAK_FUNCTION(__x86_asm32_int80_delete_module)
	.cfi_startproc simple
	.cfi_personality 0, x86_syscall_personality_asm32_int80
	.cfi_lsda 0, 0x81
	.cfi_iret_signal_frame
	.cfi_def_cfa %esp, 0
	pushl_cfi %ds
	.cfi_restore_iret_ds_or_offset -4
	pushl_cfi %es
	.cfi_restore_iret_es_or_offset -8
	pushl_cfi %fs
	.cfi_restore_iret_fs_or_offset -12
	movw   $(SEGMENT_USER_DATA_RPL), %ax
	movw   %ax, %ds
	movw   %ax, %es
	movw   $(SEGMENT_KERNEL_FSBASE), %ax
	movw   %ax, %fs
	pushl_cfi_r %edx
	pushl_cfi_r %ecx  /* Arg #1 */
	pushl_cfi_r %ebx  /* Arg #0 */
	EXTERN(sys_delete_module)
	call   sys_delete_module
	popl_cfi_r %ebx
	popl_cfi_r %ecx
	popl_cfi_r %edx
	popl_cfi %fs
	.cfi_restore_iret_fs
	popl_cfi %es
	.cfi_restore_iret_es
	popl_cfi %ds
	.cfi_restore_iret_ds
	iret
	.cfi_endproc
END(__x86_asm32_int80_delete_module)

/* errno_t get_kernel_syms(void) */
.section .text.x86.asm32_syscall_int80.get_kernel_syms
INTERN_WEAK_FUNCTION(__x86_asm32_int80_get_kernel_syms)
	.cfi_startproc simple
	.cfi_personality 0, x86_syscall_personality_asm32_int80
	.cfi_lsda 0, 0x82
	.cfi_iret_signal_frame
	.cfi_def_cfa %esp, 0
	pushl_cfi %ds
	.cfi_restore_iret_ds_or_offset -4
	pushl_cfi %es
	.cfi_restore_iret_es_or_offset -8
	pushl_cfi %fs
	.cfi_restore_iret_fs_or_offset -12
	movw   $(SEGMENT_USER_DATA_RPL), %ax
	movw   %ax, %ds
	movw   %ax, %es
	movw   $(SEGMENT_KERNEL_FSBASE), %ax
	movw   %ax, %fs
	pushl_cfi_r %ecx
	pushl_cfi_r %edx
	EXTERN(sys_get_kernel_syms)
	call   sys_get_kernel_syms
	popl_cfi_r %edx
	popl_cfi_r %ecx
	popl_cfi %fs
	.cfi_restore_iret_fs
	popl_cfi %es
	.cfi_restore_iret_es
	popl_cfi %ds
	.cfi_restore_iret_ds
	iret
	.cfi_endproc
END(__x86_asm32_int80_get_kernel_syms)

/* errno_t quotactl(int TODO_PROTOTYPE) */
.section .text.x86.asm32_syscall_int80.quotactl
INTERN_WEAK_FUNCTION(__x86_asm32_int80_quotactl)
	.cfi_startproc simple
	.cfi_personality 0, x86_syscall_personality_asm32_int80
	.cfi_lsda 0, 0x83
	.cfi_iret_signal_frame
	.cfi_def_cfa %esp, 0
	pushl_cfi %ds
	.cfi_restore_iret_ds_or_offset -4
	pushl_cfi %es
	.cfi_restore_iret_es_or_offset -8
	pushl_cfi %fs
	.cfi_restore_iret_fs_or_offset -12
	movw   $(SEGMENT_USER_DATA_RPL), %ax
	movw   %ax, %ds
	movw   %ax, %es
	movw   $(SEGMENT_KERNEL_FSBASE), %ax
	movw   %ax, %fs
	pushl_cfi_r %ecx
	pushl_cfi_r %edx
	pushl_cfi_r %ebx  /* Arg #0 */
	EXTERN(sys_quotactl)
	call   sys_quotactl
	popl_cfi_r %ebx
	popl_cfi_r %edx
	popl_cfi_r %ecx
	popl_cfi %fs
	.cfi_restore_iret_fs
	popl_cfi %es
	.cfi_restore_iret_es
	popl_cfi %ds
	.cfi_restore_iret_ds
	iret
	.cfi_endproc
END(__x86_asm32_int80_quotactl)

/* pid_t getpgid(pid_t pid) */
.section .text.x86.asm32_syscall_int80.getpgid
INTERN_WEAK_FUNCTION(__x86_asm32_int80_getpgid)
	.cfi_startproc simple
	.cfi_personality 0, x86_syscall_personality_asm32_int80
	.cfi_lsda 0, 0x84
	.cfi_iret_signal_frame
	.cfi_def_cfa %esp, 0
	pushl_cfi %ds
	.cfi_restore_iret_ds_or_offset -4
	pushl_cfi %es
	.cfi_restore_iret_es_or_offset -8
	pushl_cfi %fs
	.cfi_restore_iret_fs_or_offset -12
	movw   $(SEGMENT_USER_DATA_RPL), %ax
	movw   %ax, %ds
	movw   %ax, %es
	movw   $(SEGMENT_KERNEL_FSBASE), %ax
	movw   %ax, %fs
	pushl_cfi_r %ecx
	pushl_cfi_r %edx
	pushl_cfi_r %ebx  /* Arg #0 */
	EXTERN(sys_getpgid)
	call   sys_getpgid
	popl_cfi_r %ebx
	popl_cfi_r %edx
	popl_cfi_r %ecx
	popl_cfi %fs
	.cfi_restore_iret_fs
	popl_cfi %es
	.cfi_restore_iret_es
	popl_cfi %ds
	.cfi_restore_iret_ds
	iret
	.cfi_endproc
END(__x86_asm32_int80_getpgid)

/* errno_t fchdir(fd_t fd) */
.section .text.x86.asm32_syscall_int80.fchdir
INTERN_WEAK_FUNCTION(__x86_asm32_int80_fchdir)
	.cfi_startproc simple
	.cfi_personality 0, x86_syscall_personality_asm32_int80
	.cfi_lsda 0, 0x85
	.cfi_iret_signal_frame
	.cfi_def_cfa %esp, 0
	pushl_cfi %ds
	.cfi_restore_iret_ds_or_offset -4
	pushl_cfi %es
	.cfi_restore_iret_es_or_offset -8
	pushl_cfi %fs
	.cfi_restore_iret_fs_or_offset -12
	movw   $(SEGMENT_USER_DATA_RPL), %ax
	movw   %ax, %ds
	movw   %ax, %es
	movw   $(SEGMENT_KERNEL_FSBASE), %ax
	movw   %ax, %fs
	pushl_cfi_r %ecx
	pushl_cfi_r %edx
	pushl_cfi_r %ebx  /* Arg #0 */
	EXTERN(sys_fchdir)
	call   sys_fchdir
	popl_cfi_r %ebx
	popl_cfi_r %edx
	popl_cfi_r %ecx
	popl_cfi %fs
	.cfi_restore_iret_fs
	popl_cfi %es
	.cfi_restore_iret_es
	popl_cfi %ds
	.cfi_restore_iret_ds
	iret
	.cfi_endproc
END(__x86_asm32_int80_fchdir)

/* errno_t bdflush(int TODO_PROTOTYPE) */
.section .text.x86.asm32_syscall_int80.bdflush
INTERN_WEAK_FUNCTION(__x86_asm32_int80_bdflush)
	.cfi_startproc simple
	.cfi_personality 0, x86_syscall_personality_asm32_int80
	.cfi_lsda 0, 0x86
	.cfi_iret_signal_frame
	.cfi_def_cfa %esp, 0
	pushl_cfi %ds
	.cfi_restore_iret_ds_or_offset -4
	pushl_cfi %es
	.cfi_restore_iret_es_or_offset -8
	pushl_cfi %fs
	.cfi_restore_iret_fs_or_offset -12
	movw   $(SEGMENT_USER_DATA_RPL), %ax
	movw   %ax, %ds
	movw   %ax, %es
	movw   $(SEGMENT_KERNEL_FSBASE), %ax
	movw   %ax, %fs
	pushl_cfi_r %ecx
	pushl_cfi_r %edx
	pushl_cfi_r %ebx  /* Arg #0 */
	EXTERN(sys_bdflush)
	call   sys_bdflush
	popl_cfi_r %ebx
	popl_cfi_r %edx
	popl_cfi_r %ecx
	popl_cfi %fs
	.cfi_restore_iret_fs
	popl_cfi %es
	.cfi_restore_iret_es
	popl_cfi %ds
	.cfi_restore_iret_ds
	iret
	.cfi_endproc
END(__x86_asm32_int80_bdflush)

/* errno_t sysfs(int TODO_PROTOTYPE) */
.section .text.x86.asm32_syscall_int80.sysfs
INTERN_WEAK_FUNCTION(__x86_asm32_int80_sysfs)
	.cfi_startproc simple
	.cfi_personality 0, x86_syscall_personality_asm32_int80
	.cfi_lsda 0, 0x87
	.cfi_iret_signal_frame
	.cfi_def_cfa %esp, 0
	pushl_cfi %ds
	.cfi_restore_iret_ds_or_offset -4
	pushl_cfi %es
	.cfi_restore_iret_es_or_offset -8
	pushl_cfi %fs
	.cfi_restore_iret_fs_or_offset -12
	movw   $(SEGMENT_USER_DATA_RPL), %ax
	movw   %ax, %ds
	movw   %ax, %es
	movw   $(SEGMENT_KERNEL_FSBASE), %ax
	movw   %ax, %fs
	pushl_cfi_r %ecx
	pushl_cfi_r %edx
	pushl_cfi_r %ebx  /* Arg #0 */
	EXTERN(sys_sysfs)
	call   sys_sysfs
	popl_cfi_r %ebx
	popl_cfi_r %edx
	popl_cfi_r %ecx
	popl_cfi %fs
	.cfi_restore_iret_fs
	popl_cfi %es
	.cfi_restore_iret_es
	popl_cfi %ds
	.cfi_restore_iret_ds
	iret
	.cfi_endproc
END(__x86_asm32_int80_sysfs)

/* errno_t personality(int TODO_PROTOTYPE) */
.section .text.x86.asm32_syscall_int80.personality
INTERN_WEAK_FUNCTION(__x86_asm32_int80_personality)
	.cfi_startproc simple
	.cfi_personality 0, x86_syscall_personality_asm32_int80
	.cfi_lsda 0, 0x88
	.cfi_iret_signal_frame
	.cfi_def_cfa %esp, 0
	pushl_cfi %ds
	.cfi_restore_iret_ds_or_offset -4
	pushl_cfi %es
	.cfi_restore_iret_es_or_offset -8
	pushl_cfi %fs
	.cfi_restore_iret_fs_or_offset -12
	movw   $(SEGMENT_USER_DATA_RPL), %ax
	movw   %ax, %ds
	movw   %ax, %es
	movw   $(SEGMENT_KERNEL_FSBASE), %ax
	movw   %ax, %fs
	pushl_cfi_r %ecx
	pushl_cfi_r %edx
	pushl_cfi_r %ebx  /* Arg #0 */
	EXTERN(sys_personality)
	call   sys_personality
	popl_cfi_r %ebx
	popl_cfi_r %edx
	popl_cfi_r %ecx
	popl_cfi %fs
	.cfi_restore_iret_fs
	popl_cfi %es
	.cfi_restore_iret_es
	popl_cfi %ds
	.cfi_restore_iret_ds
	iret
	.cfi_endproc
END(__x86_asm32_int80_personality)

/* errno_t afs_syscall(void) */
.section .text.x86.asm32_syscall_int80.afs_syscall
INTERN_WEAK_FUNCTION(__x86_asm32_int80_afs_syscall)
	.cfi_startproc simple
	.cfi_personality 0, x86_syscall_personality_asm32_int80
	.cfi_lsda 0, 0x89
	.cfi_iret_signal_frame
	.cfi_def_cfa %esp, 0
	pushl_cfi %ds
	.cfi_restore_iret_ds_or_offset -4
	pushl_cfi %es
	.cfi_restore_iret_es_or_offset -8
	pushl_cfi %fs
	.cfi_restore_iret_fs_or_offset -12
	movw   $(SEGMENT_USER_DATA_RPL), %ax
	movw   %ax, %ds
	movw   %ax, %es
	movw   $(SEGMENT_KERNEL_FSBASE), %ax
	movw   %ax, %fs
	pushl_cfi_r %ecx
	pushl_cfi_r %edx
	EXTERN(sys_afs_syscall)
	call   sys_afs_syscall
	popl_cfi_r %edx
	popl_cfi_r %ecx
	popl_cfi %fs
	.cfi_restore_iret_fs
	popl_cfi %es
	.cfi_restore_iret_es
	popl_cfi %ds
	.cfi_restore_iret_ds
	iret
	.cfi_endproc
END(__x86_asm32_int80_afs_syscall)

/* >> setfsuid(2)
 * Set the  user ID  for the  cred-context (s.a.  `CLONE_CRED') of  the
 * calling thread. The calling thread needs the `CAP_SETUID' privilege.
 * @return: 0:  Success.
 * @throw: E_INSUFFICIENT_RIGHTS:CAP_SETUID: [...] */
/* errno_t setfsuid(uint16_t uid) */
.section .text.x86.asm32_syscall_int80.setfsuid
INTERN_WEAK_FUNCTION(__x86_asm32_int80_setfsuid)
	.cfi_startproc simple
	.cfi_personality 0, x86_syscall_personality_asm32_int80
	.cfi_lsda 0, 0x8a
	.cfi_iret_signal_frame
	.cfi_def_cfa %esp, 0
	pushl_cfi %ds
	.cfi_restore_iret_ds_or_offset -4
	pushl_cfi %es
	.cfi_restore_iret_es_or_offset -8
	pushl_cfi %fs
	.cfi_restore_iret_fs_or_offset -12
	movw   $(SEGMENT_USER_DATA_RPL), %ax
	movw   %ax, %ds
	movw   %ax, %es
	movw   $(SEGMENT_KERNEL_FSBASE), %ax
	movw   %ax, %fs
	pushl_cfi_r %ecx
	pushl_cfi_r %edx
	pushl_cfi_r %ebx  /* Arg #0 */
	EXTERN(sys_setfsuid)
	call   sys_setfsuid
	popl_cfi_r %ebx
	popl_cfi_r %edx
	popl_cfi_r %ecx
	popl_cfi %fs
	.cfi_restore_iret_fs
	popl_cfi %es
	.cfi_restore_iret_es
	popl_cfi %ds
	.cfi_restore_iret_ds
	iret
	.cfi_endproc
END(__x86_asm32_int80_setfsuid)

/* >> setfsgid(2)
 * Set the group  ID for  the cred-context (s.a.  `CLONE_CRED') of  the
 * calling thread. The calling thread needs the `CAP_SETGID' privilege.
 * @return: 0:  Success.
 * @throw: E_INSUFFICIENT_RIGHTS:CAP_SETGID: [...] */
/* errno_t setfsgid(uint16_t gid) */
.section .text.x86.asm32_syscall_int80.setfsgid
INTERN_WEAK_FUNCTION(__x86_asm32_int80_setfsgid)
	.cfi_startproc simple
	.cfi_personality 0, x86_syscall_personality_asm32_int80
	.cfi_lsda 0, 0x8b
	.cfi_iret_signal_frame
	.cfi_def_cfa %esp, 0
	pushl_cfi %ds
	.cfi_restore_iret_ds_or_offset -4
	pushl_cfi %es
	.cfi_restore_iret_es_or_offset -8
	pushl_cfi %fs
	.cfi_restore_iret_fs_or_offset -12
	movw   $(SEGMENT_USER_DATA_RPL), %ax
	movw   %ax, %ds
	movw   %ax, %es
	movw   $(SEGMENT_KERNEL_FSBASE), %ax
	movw   %ax, %fs
	pushl_cfi_r %ecx
	pushl_cfi_r %edx
	pushl_cfi_r %ebx  /* Arg #0 */
	EXTERN(sys_setfsgid)
	call   sys_setfsgid
	popl_cfi_r %ebx
	popl_cfi_r %edx
	popl_cfi_r %ecx
	popl_cfi %fs
	.cfi_restore_iret_fs
	popl_cfi %es
	.cfi_restore_iret_es
	popl_cfi %ds
	.cfi_restore_iret_ds
	iret
	.cfi_endproc
END(__x86_asm32_int80_setfsgid)

/* errno_t _llseek(fd_t fd, int64_t offset, uint64_t *result, syscall_ulong_t whence) */
.section .text.x86.asm32_syscall_int80._llseek
INTERN_WEAK_FUNCTION(__x86_asm32_int80__llseek)
	.cfi_startproc simple
	.cfi_personality 0, x86_syscall_personality_asm32_int80
	.cfi_lsda 0, 0x8c
	.cfi_iret_signal_frame
	.cfi_def_cfa %esp, 0
	pushl_cfi %ds
	.cfi_restore_iret_ds_or_offset -4
	pushl_cfi %es
	.cfi_restore_iret_es_or_offset -8
	pushl_cfi %fs
	.cfi_restore_iret_fs_or_offset -12
	movw   $(SEGMENT_USER_DATA_RPL), %ax
	movw   %ax, %ds
	movw   %ax, %es
	movw   $(SEGMENT_KERNEL_FSBASE), %ax
	movw   %ax, %fs
	pushl_cfi_r %edi  /* Arg #4 */
	pushl_cfi_r %esi  /* Arg #3 */
	pushl_cfi_r %edx  /* Arg #2 */
	pushl_cfi_r %ecx  /* Arg #1 */
	pushl_cfi_r %ebx  /* Arg #0 */
	EXTERN(sys__llseek)
	call   sys__llseek
	popl_cfi_r %ebx
	popl_cfi_r %ecx
	popl_cfi_r %edx
	addl   $(8), %esp
	.cfi_adjust_cfa_offset -8
	popl_cfi %fs
	.cfi_restore_iret_fs
	popl_cfi %es
	.cfi_restore_iret_es
	popl_cfi %ds
	.cfi_restore_iret_ds
	iret
	.cfi_endproc
END(__x86_asm32_int80__llseek)

/* @return: * : The actual number of read entries
 * @return: 0 : End-of-directory */
/* ssize_t getdents(fd_t fd, struct linux_direntx32 *buf, size_t buflen) */
.section .text.x86.asm32_syscall_int80.getdents
INTERN_WEAK_FUNCTION(__x86_asm32_int80_getdents)
	.cfi_startproc simple
	.cfi_personality 0, x86_syscall_personality_asm32_int80
	.cfi_lsda 0, 0x8d
	.cfi_iret_signal_frame
	.cfi_def_cfa %esp, 0
	pushl_cfi %ds
	.cfi_restore_iret_ds_or_offset -4
	pushl_cfi %es
	.cfi_restore_iret_es_or_offset -8
	pushl_cfi %fs
	.cfi_restore_iret_fs_or_offset -12
	movw   $(SEGMENT_USER_DATA_RPL), %ax
	movw   %ax, %ds
	movw   %ax, %es
	movw   $(SEGMENT_KERNEL_FSBASE), %ax
	movw   %ax, %fs
	pushl_cfi_r %edx  /* Arg #2 */
	pushl_cfi_r %ecx  /* Arg #1 */
	pushl_cfi_r %ebx  /* Arg #0 */
	EXTERN(sys_getdents)
	call   sys_getdents
	popl_cfi_r %ebx
	popl_cfi_r %ecx
	popl_cfi_r %edx
	popl_cfi %fs
	.cfi_restore_iret_fs
	popl_cfi %es
	.cfi_restore_iret_es
	popl_cfi %ds
	.cfi_restore_iret_ds
	iret
	.cfi_endproc
END(__x86_asm32_int80_getdents)

/* ssize_t _newselect(size_t nfds, struct __fd_set_struct *readfds, struct __fd_set_struct *writefds, struct __fd_set_struct *exceptfds, struct timevalx32 *timeout) */
.section .text.x86.asm32_syscall_int80._newselect
INTERN_WEAK_FUNCTION(__x86_asm32_int80__newselect)
	.cfi_startproc simple
	.cfi_personality 0, x86_syscall_personality_asm32_int80
	.cfi_lsda 0, 0x8e
	.cfi_iret_signal_frame
	.cfi_def_cfa %esp, 0
	pushl_cfi %ds
	.cfi_restore_iret_ds_or_offset -4
	pushl_cfi %es
	.cfi_restore_iret_es_or_offset -8
	pushl_cfi %fs
	.cfi_restore_iret_fs_or_offset -12
	movw   $(SEGMENT_USER_DATA_RPL), %ax
	movw   %ax, %ds
	movw   %ax, %es
	movw   $(SEGMENT_KERNEL_FSBASE), %ax
	movw   %ax, %fs
	pushl_cfi_r %edi  /* Arg #4 */
	pushl_cfi_r %esi  /* Arg #3 */
	pushl_cfi_r %edx  /* Arg #2 */
	pushl_cfi_r %ecx  /* Arg #1 */
	pushl_cfi_r %ebx  /* Arg #0 */
	EXTERN(sys__newselect)
	call   sys__newselect
	popl_cfi_r %ebx
	popl_cfi_r %ecx
	popl_cfi_r %edx
	addl   $(8), %esp
	.cfi_adjust_cfa_offset -8
	popl_cfi %fs
	.cfi_restore_iret_fs
	popl_cfi %es
	.cfi_restore_iret_es
	popl_cfi %ds
	.cfi_restore_iret_ds
	iret
	.cfi_endproc
END(__x86_asm32_int80__newselect)

/* errno_t flock(fd_t fd, syscall_ulong_t operation) */
.section .text.x86.asm32_syscall_int80.flock
INTERN_WEAK_FUNCTION(__x86_asm32_int80_flock)
	.cfi_startproc simple
	.cfi_personality 0, x86_syscall_personality_asm32_int80
	.cfi_lsda 0, 0x8f
	.cfi_iret_signal_frame
	.cfi_def_cfa %esp, 0
	pushl_cfi %ds
	.cfi_restore_iret_ds_or_offset -4
	pushl_cfi %es
	.cfi_restore_iret_es_or_offset -8
	pushl_cfi %fs
	.cfi_restore_iret_fs_or_offset -12
	movw   $(SEGMENT_USER_DATA_RPL), %ax
	movw   %ax, %ds
	movw   %ax, %es
	movw   $(SEGMENT_KERNEL_FSBASE), %ax
	movw   %ax, %fs
	pushl_cfi_r %edx
	pushl_cfi_r %ecx  /* Arg #1 */
	pushl_cfi_r %ebx  /* Arg #0 */
	EXTERN(sys_flock)
	call   sys_flock
	popl_cfi_r %ebx
	popl_cfi_r %ecx
	popl_cfi_r %edx
	popl_cfi %fs
	.cfi_restore_iret_fs
	popl_cfi %es
	.cfi_restore_iret_es
	popl_cfi %ds
	.cfi_restore_iret_ds
	iret
	.cfi_endproc
END(__x86_asm32_int80_flock)

/* errno_t msync(void *addr, size_t len, syscall_ulong_t flags) */
.section .text.x86.asm32_syscall_int80.msync
INTERN_WEAK_FUNCTION(__x86_asm32_int80_msync)
	.cfi_startproc simple
	.cfi_personality 0, x86_syscall_personality_asm32_int80
	.cfi_lsda 0, 0x90
	.cfi_iret_signal_frame
	.cfi_def_cfa %esp, 0
	pushl_cfi %ds
	.cfi_restore_iret_ds_or_offset -4
	pushl_cfi %es
	.cfi_restore_iret_es_or_offset -8
	pushl_cfi %fs
	.cfi_restore_iret_fs_or_offset -12
	movw   $(SEGMENT_USER_DATA_RPL), %ax
	movw   %ax, %ds
	movw   %ax, %es
	movw   $(SEGMENT_KERNEL_FSBASE), %ax
	movw   %ax, %fs
	pushl_cfi_r %edx  /* Arg #2 */
	pushl_cfi_r %ecx  /* Arg #1 */
	pushl_cfi_r %ebx  /* Arg #0 */
	EXTERN(sys_msync)
	call   sys_msync
	popl_cfi_r %ebx
	popl_cfi_r %ecx
	popl_cfi_r %edx
	popl_cfi %fs
	.cfi_restore_iret_fs
	popl_cfi %es
	.cfi_restore_iret_es
	popl_cfi %ds
	.cfi_restore_iret_ds
	iret
	.cfi_endproc
END(__x86_asm32_int80_msync)

/* Same as `read(2)', but rather than specifying a single, continuous buffer,
 * read  data into `count'  separate buffers, though  still return the actual
 * number of read bytes.
 * When `fd' has the `O_NONBLOCK' flag set, only read as much data as was
 * available at  the time  the call  was made,  and throw  `E_WOULDBLOCK'
 * no data was available at the time.
 * @return: <= SUM(iov[*].iov_len): The actual amount of read bytes
 * @return: 0                     : EOF */
/* ssize_t readv(fd_t fd, struct iovecx32 const *iovec, size_t count) */
.section .text.x86.asm32_syscall_int80.readv
INTERN_WEAK_FUNCTION(__x86_asm32_int80_readv)
	.cfi_startproc simple
	.cfi_personality 0, x86_syscall_personality_asm32_int80
	.cfi_lsda 0, 0x91
	.cfi_iret_signal_frame
	.cfi_def_cfa %esp, 0
	pushl_cfi %ds
	.cfi_restore_iret_ds_or_offset -4
	pushl_cfi %es
	.cfi_restore_iret_es_or_offset -8
	pushl_cfi %fs
	.cfi_restore_iret_fs_or_offset -12
	movw   $(SEGMENT_USER_DATA_RPL), %ax
	movw   %ax, %ds
	movw   %ax, %es
	movw   $(SEGMENT_KERNEL_FSBASE), %ax
	movw   %ax, %fs
	pushl_cfi_r %edx  /* Arg #2 */
	pushl_cfi_r %ecx  /* Arg #1 */
	pushl_cfi_r %ebx  /* Arg #0 */
	EXTERN(sys_readv)
	call   sys_readv
	popl_cfi_r %ebx
	popl_cfi_r %ecx
	popl_cfi_r %edx
	popl_cfi %fs
	.cfi_restore_iret_fs
	popl_cfi %es
	.cfi_restore_iret_es
	popl_cfi %ds
	.cfi_restore_iret_ds
	iret
	.cfi_endproc
END(__x86_asm32_int80_readv)

/* Same as `write(2)', but rather than specifying a single, continuous buffer,
 * write  data from `count'  separate buffers, though  still return the actual
 * number of written bytes.
 * When  `fd' has the  `O_NONBLOCK' flag set, only  write as much data
 * as possible at the time the call was made, and throw `E_WOULDBLOCK'
 * if no data could be written at the time.
 * @return: <= SUM(iov[*].iov_len): The actual amount of written bytes
 * @return: 0                     : No more data can be written */
/* ssize_t writev(fd_t fd, struct iovecx32 const *iovec, size_t count) */
.section .text.x86.asm32_syscall_int80.writev
INTERN_WEAK_FUNCTION(__x86_asm32_int80_writev)
	.cfi_startproc simple
	.cfi_personality 0, x86_syscall_personality_asm32_int80
	.cfi_lsda 0, 0x92
	.cfi_iret_signal_frame
	.cfi_def_cfa %esp, 0
	pushl_cfi %ds
	.cfi_restore_iret_ds_or_offset -4
	pushl_cfi %es
	.cfi_restore_iret_es_or_offset -8
	pushl_cfi %fs
	.cfi_restore_iret_fs_or_offset -12
	movw   $(SEGMENT_USER_DATA_RPL), %ax
	movw   %ax, %ds
	movw   %ax, %es
	movw   $(SEGMENT_KERNEL_FSBASE), %ax
	movw   %ax, %fs
	pushl_cfi_r %edx  /* Arg #2 */
	pushl_cfi_r %ecx  /* Arg #1 */
	pushl_cfi_r %ebx  /* Arg #0 */
	EXTERN(sys_writev)
	call   sys_writev
	popl_cfi_r %ebx
	popl_cfi_r %ecx
	popl_cfi_r %edx
	popl_cfi %fs
	.cfi_restore_iret_fs
	popl_cfi %es
	.cfi_restore_iret_es
	popl_cfi %ds
	.cfi_restore_iret_ds
	iret
	.cfi_endproc
END(__x86_asm32_int80_writev)

/* pid_t getsid(pid_t pid) */
.section .text.x86.asm32_syscall_int80.getsid
INTERN_WEAK_FUNCTION(__x86_asm32_int80_getsid)
	.cfi_startproc simple
	.cfi_personality 0, x86_syscall_personality_asm32_int80
	.cfi_lsda 0, 0x93
	.cfi_iret_signal_frame
	.cfi_def_cfa %esp, 0
	pushl_cfi %ds
	.cfi_restore_iret_ds_or_offset -4
	pushl_cfi %es
	.cfi_restore_iret_es_or_offset -8
	pushl_cfi %fs
	.cfi_restore_iret_fs_or_offset -12
	movw   $(SEGMENT_USER_DATA_RPL), %ax
	movw   %ax, %ds
	movw   %ax, %es
	movw   $(SEGMENT_KERNEL_FSBASE), %ax
	movw   %ax, %fs
	pushl_cfi_r %ecx
	pushl_cfi_r %edx
	pushl_cfi_r %ebx  /* Arg #0 */
	EXTERN(sys_getsid)
	call   sys_getsid
	popl_cfi_r %ebx
	popl_cfi_r %edx
	popl_cfi_r %ecx
	popl_cfi %fs
	.cfi_restore_iret_fs
	popl_cfi %es
	.cfi_restore_iret_es
	popl_cfi %ds
	.cfi_restore_iret_ds
	iret
	.cfi_endproc
END(__x86_asm32_int80_getsid)

/* Synchronize only the data of a file (not its descriptor which contains
 * timestamps,  and its size),  meaning that changes  are written to disk */
/* errno_t fdatasync(fd_t fd) */
.section .text.x86.asm32_syscall_int80.fdatasync
INTERN_WEAK_FUNCTION(__x86_asm32_int80_fdatasync)
	.cfi_startproc simple
	.cfi_personality 0, x86_syscall_personality_asm32_int80
	.cfi_lsda 0, 0x94
	.cfi_iret_signal_frame
	.cfi_def_cfa %esp, 0
	pushl_cfi %ds
	.cfi_restore_iret_ds_or_offset -4
	pushl_cfi %es
	.cfi_restore_iret_es_or_offset -8
	pushl_cfi %fs
	.cfi_restore_iret_fs_or_offset -12
	movw   $(SEGMENT_USER_DATA_RPL), %ax
	movw   %ax, %ds
	movw   %ax, %es
	movw   $(SEGMENT_KERNEL_FSBASE), %ax
	movw   %ax, %fs
	pushl_cfi_r %ecx
	pushl_cfi_r %edx
	pushl_cfi_r %ebx  /* Arg #0 */
	EXTERN(sys_fdatasync)
	call   sys_fdatasync
	popl_cfi_r %ebx
	popl_cfi_r %edx
	popl_cfi_r %ecx
	popl_cfi %fs
	.cfi_restore_iret_fs
	popl_cfi %es
	.cfi_restore_iret_es
	popl_cfi %ds
	.cfi_restore_iret_ds
	iret
	.cfi_endproc
END(__x86_asm32_int80_fdatasync)

/* errno_t _sysctl(int TODO_PROTOTYPE) */
.section .text.x86.asm32_syscall_int80._sysctl
INTERN_WEAK_FUNCTION(__x86_asm32_int80__sysctl)
	.cfi_startproc simple
	.cfi_personality 0, x86_syscall_personality_asm32_int80
	.cfi_lsda 0, 0x95
	.cfi_iret_signal_frame
	.cfi_def_cfa %esp, 0
	pushl_cfi %ds
	.cfi_restore_iret_ds_or_offset -4
	pushl_cfi %es
	.cfi_restore_iret_es_or_offset -8
	pushl_cfi %fs
	.cfi_restore_iret_fs_or_offset -12
	movw   $(SEGMENT_USER_DATA_RPL), %ax
	movw   %ax, %ds
	movw   %ax, %es
	movw   $(SEGMENT_KERNEL_FSBASE), %ax
	movw   %ax, %fs
	pushl_cfi_r %ecx
	pushl_cfi_r %edx
	pushl_cfi_r %ebx  /* Arg #0 */
	EXTERN(sys__sysctl)
	call   sys__sysctl
	popl_cfi_r %ebx
	popl_cfi_r %edx
	popl_cfi_r %ecx
	popl_cfi %fs
	.cfi_restore_iret_fs
	popl_cfi %es
	.cfi_restore_iret_es
	popl_cfi %ds
	.cfi_restore_iret_ds
	iret
	.cfi_endproc
END(__x86_asm32_int80__sysctl)

/* errno_t mlock(void const *addr, size_t len) */
.section .text.x86.asm32_syscall_int80.mlock
INTERN_WEAK_FUNCTION(__x86_asm32_int80_mlock)
	.cfi_startproc simple
	.cfi_personality 0, x86_syscall_personality_asm32_int80
	.cfi_lsda 0, 0x96
	.cfi_iret_signal_frame
	.cfi_def_cfa %esp, 0
	pushl_cfi %ds
	.cfi_restore_iret_ds_or_offset -4
	pushl_cfi %es
	.cfi_restore_iret_es_or_offset -8
	pushl_cfi %fs
	.cfi_restore_iret_fs_or_offset -12
	movw   $(SEGMENT_USER_DATA_RPL), %ax
	movw   %ax, %ds
	movw   %ax, %es
	movw   $(SEGMENT_KERNEL_FSBASE), %ax
	movw   %ax, %fs
	pushl_cfi_r %edx
	pushl_cfi_r %ecx  /* Arg #1 */
	pushl_cfi_r %ebx  /* Arg #0 */
	EXTERN(sys_mlock)
	call   sys_mlock
	popl_cfi_r %ebx
	popl_cfi_r %ecx
	popl_cfi_r %edx
	popl_cfi %fs
	.cfi_restore_iret_fs
	popl_cfi %es
	.cfi_restore_iret_es
	popl_cfi %ds
	.cfi_restore_iret_ds
	iret
	.cfi_endproc
END(__x86_asm32_int80_mlock)

/* errno_t munlock(void const *addr, size_t len) */
.section .text.x86.asm32_syscall_int80.munlock
INTERN_WEAK_FUNCTION(__x86_asm32_int80_munlock)
	.cfi_startproc simple
	.cfi_personality 0, x86_syscall_personality_asm32_int80
	.cfi_lsda 0, 0x97
	.cfi_iret_signal_frame
	.cfi_def_cfa %esp, 0
	pushl_cfi %ds
	.cfi_restore_iret_ds_or_offset -4
	pushl_cfi %es
	.cfi_restore_iret_es_or_offset -8
	pushl_cfi %fs
	.cfi_restore_iret_fs_or_offset -12
	movw   $(SEGMENT_USER_DATA_RPL), %ax
	movw   %ax, %ds
	movw   %ax, %es
	movw   $(SEGMENT_KERNEL_FSBASE), %ax
	movw   %ax, %fs
	pushl_cfi_r %edx
	pushl_cfi_r %ecx  /* Arg #1 */
	pushl_cfi_r %ebx  /* Arg #0 */
	EXTERN(sys_munlock)
	call   sys_munlock
	popl_cfi_r %ebx
	popl_cfi_r %ecx
	popl_cfi_r %edx
	popl_cfi %fs
	.cfi_restore_iret_fs
	popl_cfi %es
	.cfi_restore_iret_es
	popl_cfi %ds
	.cfi_restore_iret_ds
	iret
	.cfi_endproc
END(__x86_asm32_int80_munlock)

/* @param: flags: Set of `MCL_CURRENT | MCL_FUTURE | MCL_ONFAULT' */
/* errno_t mlockall(syscall_ulong_t flags) */
.section .text.x86.asm32_syscall_int80.mlockall
INTERN_WEAK_FUNCTION(__x86_asm32_int80_mlockall)
	.cfi_startproc simple
	.cfi_personality 0, x86_syscall_personality_asm32_int80
	.cfi_lsda 0, 0x98
	.cfi_iret_signal_frame
	.cfi_def_cfa %esp, 0
	pushl_cfi %ds
	.cfi_restore_iret_ds_or_offset -4
	pushl_cfi %es
	.cfi_restore_iret_es_or_offset -8
	pushl_cfi %fs
	.cfi_restore_iret_fs_or_offset -12
	movw   $(SEGMENT_USER_DATA_RPL), %ax
	movw   %ax, %ds
	movw   %ax, %es
	movw   $(SEGMENT_KERNEL_FSBASE), %ax
	movw   %ax, %fs
	pushl_cfi_r %ecx
	pushl_cfi_r %edx
	pushl_cfi_r %ebx  /* Arg #0 */
	EXTERN(sys_mlockall)
	call   sys_mlockall
	popl_cfi_r %ebx
	popl_cfi_r %edx
	popl_cfi_r %ecx
	popl_cfi %fs
	.cfi_restore_iret_fs
	popl_cfi %es
	.cfi_restore_iret_es
	popl_cfi %ds
	.cfi_restore_iret_ds
	iret
	.cfi_endproc
END(__x86_asm32_int80_mlockall)

/* errno_t munlockall(void) */
.section .text.x86.asm32_syscall_int80.munlockall
INTERN_WEAK_FUNCTION(__x86_asm32_int80_munlockall)
	.cfi_startproc simple
	.cfi_personality 0, x86_syscall_personality_asm32_int80
	.cfi_lsda 0, 0x99
	.cfi_iret_signal_frame
	.cfi_def_cfa %esp, 0
	pushl_cfi %ds
	.cfi_restore_iret_ds_or_offset -4
	pushl_cfi %es
	.cfi_restore_iret_es_or_offset -8
	pushl_cfi %fs
	.cfi_restore_iret_fs_or_offset -12
	movw   $(SEGMENT_USER_DATA_RPL), %ax
	movw   %ax, %ds
	movw   %ax, %es
	movw   $(SEGMENT_KERNEL_FSBASE), %ax
	movw   %ax, %fs
	pushl_cfi_r %ecx
	pushl_cfi_r %edx
	EXTERN(sys_munlockall)
	call   sys_munlockall
	popl_cfi_r %edx
	popl_cfi_r %ecx
	popl_cfi %fs
	.cfi_restore_iret_fs
	popl_cfi %es
	.cfi_restore_iret_es
	popl_cfi %ds
	.cfi_restore_iret_ds
	iret
	.cfi_endproc
END(__x86_asm32_int80_munlockall)

/* errno_t sched_setparam(pid_t pid, struct sched_param const *param) */
.section .text.x86.asm32_syscall_int80.sched_setparam
INTERN_WEAK_FUNCTION(__x86_asm32_int80_sched_setparam)
	.cfi_startproc simple
	.cfi_personality 0, x86_syscall_personality_asm32_int80
	.cfi_lsda 0, 0x9a
	.cfi_iret_signal_frame
	.cfi_def_cfa %esp, 0
	pushl_cfi %ds
	.cfi_restore_iret_ds_or_offset -4
	pushl_cfi %es
	.cfi_restore_iret_es_or_offset -8
	pushl_cfi %fs
	.cfi_restore_iret_fs_or_offset -12
	movw   $(SEGMENT_USER_DATA_RPL), %ax
	movw   %ax, %ds
	movw   %ax, %es
	movw   $(SEGMENT_KERNEL_FSBASE), %ax
	movw   %ax, %fs
	pushl_cfi_r %edx
	pushl_cfi_r %ecx  /* Arg #1 */
	pushl_cfi_r %ebx  /* Arg #0 */
	EXTERN(sys_sched_setparam)
	call   sys_sched_setparam
	popl_cfi_r %ebx
	popl_cfi_r %ecx
	popl_cfi_r %edx
	popl_cfi %fs
	.cfi_restore_iret_fs
	popl_cfi %es
	.cfi_restore_iret_es
	popl_cfi %ds
	.cfi_restore_iret_ds
	iret
	.cfi_endproc
END(__x86_asm32_int80_sched_setparam)

/* errno_t sched_getparam(pid_t pid, struct sched_param *param) */
.section .text.x86.asm32_syscall_int80.sched_getparam
INTERN_WEAK_FUNCTION(__x86_asm32_int80_sched_getparam)
	.cfi_startproc simple
	.cfi_personality 0, x86_syscall_personality_asm32_int80
	.cfi_lsda 0, 0x9b
	.cfi_iret_signal_frame
	.cfi_def_cfa %esp, 0
	pushl_cfi %ds
	.cfi_restore_iret_ds_or_offset -4
	pushl_cfi %es
	.cfi_restore_iret_es_or_offset -8
	pushl_cfi %fs
	.cfi_restore_iret_fs_or_offset -12
	movw   $(SEGMENT_USER_DATA_RPL), %ax
	movw   %ax, %ds
	movw   %ax, %es
	movw   $(SEGMENT_KERNEL_FSBASE), %ax
	movw   %ax, %fs
	pushl_cfi_r %edx
	pushl_cfi_r %ecx  /* Arg #1 */
	pushl_cfi_r %ebx  /* Arg #0 */
	EXTERN(sys_sched_getparam)
	call   sys_sched_getparam
	popl_cfi_r %ebx
	popl_cfi_r %ecx
	popl_cfi_r %edx
	popl_cfi %fs
	.cfi_restore_iret_fs
	popl_cfi %es
	.cfi_restore_iret_es
	popl_cfi %ds
	.cfi_restore_iret_ds
	iret
	.cfi_endproc
END(__x86_asm32_int80_sched_getparam)

/* @param: policy: One of `SCHED_OTHER', `SCHED_FIFO', `SCHED_RR', `SCHED_BATCH',
 *                 `SCHED_IDLE',  optionally   or'd  with   `SCHED_RESET_ON_FORK' */
/* errno_t sched_setscheduler(pid_t pid, syscall_ulong_t policy, struct sched_param const *param) */
.section .text.x86.asm32_syscall_int80.sched_setscheduler
INTERN_WEAK_FUNCTION(__x86_asm32_int80_sched_setscheduler)
	.cfi_startproc simple
	.cfi_personality 0, x86_syscall_personality_asm32_int80
	.cfi_lsda 0, 0x9c
	.cfi_iret_signal_frame
	.cfi_def_cfa %esp, 0
	pushl_cfi %ds
	.cfi_restore_iret_ds_or_offset -4
	pushl_cfi %es
	.cfi_restore_iret_es_or_offset -8
	pushl_cfi %fs
	.cfi_restore_iret_fs_or_offset -12
	movw   $(SEGMENT_USER_DATA_RPL), %ax
	movw   %ax, %ds
	movw   %ax, %es
	movw   $(SEGMENT_KERNEL_FSBASE), %ax
	movw   %ax, %fs
	pushl_cfi_r %edx  /* Arg #2 */
	pushl_cfi_r %ecx  /* Arg #1 */
	pushl_cfi_r %ebx  /* Arg #0 */
	EXTERN(sys_sched_setscheduler)
	call   sys_sched_setscheduler
	popl_cfi_r %ebx
	popl_cfi_r %ecx
	popl_cfi_r %edx
	popl_cfi %fs
	.cfi_restore_iret_fs
	popl_cfi %es
	.cfi_restore_iret_es
	popl_cfi %ds
	.cfi_restore_iret_ds
	iret
	.cfi_endproc
END(__x86_asm32_int80_sched_setscheduler)

/* syscall_slong_t sched_getscheduler(pid_t pid) */
.section .text.x86.asm32_syscall_int80.sched_getscheduler
INTERN_WEAK_FUNCTION(__x86_asm32_int80_sched_getscheduler)
	.cfi_startproc simple
	.cfi_personality 0, x86_syscall_personality_asm32_int80
	.cfi_lsda 0, 0x9d
	.cfi_iret_signal_frame
	.cfi_def_cfa %esp, 0
	pushl_cfi %ds
	.cfi_restore_iret_ds_or_offset -4
	pushl_cfi %es
	.cfi_restore_iret_es_or_offset -8
	pushl_cfi %fs
	.cfi_restore_iret_fs_or_offset -12
	movw   $(SEGMENT_USER_DATA_RPL), %ax
	movw   %ax, %ds
	movw   %ax, %es
	movw   $(SEGMENT_KERNEL_FSBASE), %ax
	movw   %ax, %fs
	pushl_cfi_r %ecx
	pushl_cfi_r %edx
	pushl_cfi_r %ebx  /* Arg #0 */
	EXTERN(sys_sched_getscheduler)
	call   sys_sched_getscheduler
	popl_cfi_r %ebx
	popl_cfi_r %edx
	popl_cfi_r %ecx
	popl_cfi %fs
	.cfi_restore_iret_fs
	popl_cfi %es
	.cfi_restore_iret_es
	popl_cfi %ds
	.cfi_restore_iret_ds
	iret
	.cfi_endproc
END(__x86_asm32_int80_sched_getscheduler)

/* errno_t sched_yield(void) */
.section .text.x86.asm32_syscall_int80.sched_yield
INTERN_WEAK_FUNCTION(__x86_asm32_int80_sched_yield)
	.cfi_startproc simple
	.cfi_personality 0, x86_syscall_personality_asm32_int80
	.cfi_lsda 0, 0x9e
	.cfi_iret_signal_frame
	.cfi_def_cfa %esp, 0
	pushl_cfi %ds
	.cfi_restore_iret_ds_or_offset -4
	pushl_cfi %es
	.cfi_restore_iret_es_or_offset -8
	pushl_cfi %fs
	.cfi_restore_iret_fs_or_offset -12
	movw   $(SEGMENT_USER_DATA_RPL), %ax
	movw   %ax, %ds
	movw   %ax, %es
	movw   $(SEGMENT_KERNEL_FSBASE), %ax
	movw   %ax, %fs
	pushl_cfi_r %ecx
	pushl_cfi_r %edx
	EXTERN(sys_sched_yield)
	call   sys_sched_yield
	popl_cfi_r %edx
	popl_cfi_r %ecx
	popl_cfi %fs
	.cfi_restore_iret_fs
	popl_cfi %es
	.cfi_restore_iret_es
	popl_cfi %ds
	.cfi_restore_iret_ds
	iret
	.cfi_endproc
END(__x86_asm32_int80_sched_yield)

/* syscall_slong_t sched_get_priority_max(syscall_ulong_t algorithm) */
.section .text.x86.asm32_syscall_int80.sched_get_priority_max
INTERN_WEAK_FUNCTION(__x86_asm32_int80_sched_get_priority_max)
	.cfi_startproc simple
	.cfi_personality 0, x86_syscall_personality_asm32_int80
	.cfi_lsda 0, 0x9f
	.cfi_iret_signal_frame
	.cfi_def_cfa %esp, 0
	pushl_cfi %ds
	.cfi_restore_iret_ds_or_offset -4
	pushl_cfi %es
	.cfi_restore_iret_es_or_offset -8
	pushl_cfi %fs
	.cfi_restore_iret_fs_or_offset -12
	movw   $(SEGMENT_USER_DATA_RPL), %ax
	movw   %ax, %ds
	movw   %ax, %es
	movw   $(SEGMENT_KERNEL_FSBASE), %ax
	movw   %ax, %fs
	pushl_cfi_r %ecx
	pushl_cfi_r %edx
	pushl_cfi_r %ebx  /* Arg #0 */
	EXTERN(sys_sched_get_priority_max)
	call   sys_sched_get_priority_max
	popl_cfi_r %ebx
	popl_cfi_r %edx
	popl_cfi_r %ecx
	popl_cfi %fs
	.cfi_restore_iret_fs
	popl_cfi %es
	.cfi_restore_iret_es
	popl_cfi %ds
	.cfi_restore_iret_ds
	iret
	.cfi_endproc
END(__x86_asm32_int80_sched_get_priority_max)

/* syscall_slong_t sched_get_priority_min(syscall_ulong_t algorithm) */
.section .text.x86.asm32_syscall_int80.sched_get_priority_min
INTERN_WEAK_FUNCTION(__x86_asm32_int80_sched_get_priority_min)
	.cfi_startproc simple
	.cfi_personality 0, x86_syscall_personality_asm32_int80
	.cfi_lsda 0, 0xa0
	.cfi_iret_signal_frame
	.cfi_def_cfa %esp, 0
	pushl_cfi %ds
	.cfi_restore_iret_ds_or_offset -4
	pushl_cfi %es
	.cfi_restore_iret_es_or_offset -8
	pushl_cfi %fs
	.cfi_restore_iret_fs_or_offset -12
	movw   $(SEGMENT_USER_DATA_RPL), %ax
	movw   %ax, %ds
	movw   %ax, %es
	movw   $(SEGMENT_KERNEL_FSBASE), %ax
	movw   %ax, %fs
	pushl_cfi_r %ecx
	pushl_cfi_r %edx
	pushl_cfi_r %ebx  /* Arg #0 */
	EXTERN(sys_sched_get_priority_min)
	call   sys_sched_get_priority_min
	popl_cfi_r %ebx
	popl_cfi_r %edx
	popl_cfi_r %ecx
	popl_cfi %fs
	.cfi_restore_iret_fs
	popl_cfi %es
	.cfi_restore_iret_es
	popl_cfi %ds
	.cfi_restore_iret_ds
	iret
	.cfi_endproc
END(__x86_asm32_int80_sched_get_priority_min)

/* errno_t sched_rr_get_interval(pid_t pid, struct timespecx32 *ts) */
.section .text.x86.asm32_syscall_int80.sched_rr_get_interval
INTERN_WEAK_FUNCTION(__x86_asm32_int80_sched_rr_get_interval)
	.cfi_startproc simple
	.cfi_personality 0, x86_syscall_personality_asm32_int80
	.cfi_lsda 0, 0xa1
	.cfi_iret_signal_frame
	.cfi_def_cfa %esp, 0
	pushl_cfi %ds
	.cfi_restore_iret_ds_or_offset -4
	pushl_cfi %es
	.cfi_restore_iret_es_or_offset -8
	pushl_cfi %fs
	.cfi_restore_iret_fs_or_offset -12
	movw   $(SEGMENT_USER_DATA_RPL), %ax
	movw   %ax, %ds
	movw   %ax, %es
	movw   $(SEGMENT_KERNEL_FSBASE), %ax
	movw   %ax, %fs
	pushl_cfi_r %edx
	pushl_cfi_r %ecx  /* Arg #1 */
	pushl_cfi_r %ebx  /* Arg #0 */
	EXTERN(sys_sched_rr_get_interval)
	call   sys_sched_rr_get_interval
	popl_cfi_r %ebx
	popl_cfi_r %ecx
	popl_cfi_r %edx
	popl_cfi %fs
	.cfi_restore_iret_fs
	popl_cfi %es
	.cfi_restore_iret_es
	popl_cfi %ds
	.cfi_restore_iret_ds
	iret
	.cfi_endproc
END(__x86_asm32_int80_sched_rr_get_interval)

/* errno_t nanosleep(struct timespecx32 const *req, struct timespecx32 *rem) */
.section .text.x86.asm32_syscall_int80.nanosleep
INTERN_WEAK_FUNCTION(__x86_asm32_int80_nanosleep)
	.cfi_startproc simple
	.cfi_personality 0, x86_syscall_personality_asm32_int80
	.cfi_lsda 0, 0xa2
	.cfi_iret_signal_frame
	.cfi_def_cfa %esp, 0
	pushl_cfi %ds
	.cfi_restore_iret_ds_or_offset -4
	pushl_cfi %es
	.cfi_restore_iret_es_or_offset -8
	pushl_cfi %fs
	.cfi_restore_iret_fs_or_offset -12
	movw   $(SEGMENT_USER_DATA_RPL), %ax
	movw   %ax, %ds
	movw   %ax, %es
	movw   $(SEGMENT_KERNEL_FSBASE), %ax
	movw   %ax, %fs
	pushl_cfi_r %edx
	pushl_cfi_r %ecx  /* Arg #1 */
	pushl_cfi_r %ebx  /* Arg #0 */
	EXTERN(sys_nanosleep)
	call   sys_nanosleep
	popl_cfi_r %ebx
	popl_cfi_r %ecx
	popl_cfi_r %edx
	popl_cfi %fs
	.cfi_restore_iret_fs
	popl_cfi %es
	.cfi_restore_iret_es
	popl_cfi %ds
	.cfi_restore_iret_ds
	iret
	.cfi_endproc
END(__x86_asm32_int80_nanosleep)

/* @param: flags: Set of `MREMAP_MAYMOVE | MREMAP_FIXED' */
/* void *mremap(void *addr, size_t old_len, size_t new_len, syscall_ulong_t flags, void *new_address) */
.section .text.x86.asm32_syscall_int80.mremap
INTERN_WEAK_FUNCTION(__x86_asm32_int80_mremap)
	.cfi_startproc simple
	.cfi_personality 0, x86_syscall_personality_asm32_int80
	.cfi_lsda 0, 0xa3
	.cfi_iret_signal_frame
	.cfi_def_cfa %esp, 0
	pushl_cfi %ds
	.cfi_restore_iret_ds_or_offset -4
	pushl_cfi %es
	.cfi_restore_iret_es_or_offset -8
	pushl_cfi %fs
	.cfi_restore_iret_fs_or_offset -12
	movw   $(SEGMENT_USER_DATA_RPL), %ax
	movw   %ax, %ds
	movw   %ax, %es
	movw   $(SEGMENT_KERNEL_FSBASE), %ax
	movw   %ax, %fs
	pushl_cfi_r %edi  /* Arg #4 */
	pushl_cfi_r %esi  /* Arg #3 */
	pushl_cfi_r %edx  /* Arg #2 */
	pushl_cfi_r %ecx  /* Arg #1 */
	pushl_cfi_r %ebx  /* Arg #0 */
	EXTERN(sys_mremap)
	call   sys_mremap
	popl_cfi_r %ebx
	popl_cfi_r %ecx
	popl_cfi_r %edx
	addl   $(8), %esp
	.cfi_adjust_cfa_offset -8
	popl_cfi %fs
	.cfi_restore_iret_fs
	popl_cfi %es
	.cfi_restore_iret_es
	popl_cfi %ds
	.cfi_restore_iret_ds
	iret
	.cfi_endproc
END(__x86_asm32_int80_mremap)

/* >> setresuid(2)
 * @return: 0 : Success
 * Set the real, effective, and saved UID of the calling thread.
 * @throw: E_INSUFFICIENT_RIGHTS:CAP_SETUID: [...] */
/* errno_t setresuid(uint16_t ruid, uint16_t euid, uint16_t suid) */
.section .text.x86.asm32_syscall_int80.setresuid
INTERN_WEAK_FUNCTION(__x86_asm32_int80_setresuid)
	.cfi_startproc simple
	.cfi_personality 0, x86_syscall_personality_asm32_int80
	.cfi_lsda 0, 0xa4
	.cfi_iret_signal_frame
	.cfi_def_cfa %esp, 0
	pushl_cfi %ds
	.cfi_restore_iret_ds_or_offset -4
	pushl_cfi %es
	.cfi_restore_iret_es_or_offset -8
	pushl_cfi %fs
	.cfi_restore_iret_fs_or_offset -12
	movw   $(SEGMENT_USER_DATA_RPL), %ax
	movw   %ax, %ds
	movw   %ax, %es
	movw   $(SEGMENT_KERNEL_FSBASE), %ax
	movw   %ax, %fs
	pushl_cfi_r %edx  /* Arg #2 */
	pushl_cfi_r %ecx  /* Arg #1 */
	pushl_cfi_r %ebx  /* Arg #0 */
	EXTERN(sys_setresuid)
	call   sys_setresuid
	popl_cfi_r %ebx
	popl_cfi_r %ecx
	popl_cfi_r %edx
	popl_cfi %fs
	.cfi_restore_iret_fs
	popl_cfi %es
	.cfi_restore_iret_es
	popl_cfi %ds
	.cfi_restore_iret_ds
	iret
	.cfi_endproc
END(__x86_asm32_int80_setresuid)

/* >> getresuid(2)
 * Get the real, effective, and saved UID of the calling thread.
 * @return: 0 : Success */
/* errno_t getresuid(uint16_t *ruid, uint16_t *euid, uint16_t *suid) */
.section .text.x86.asm32_syscall_int80.getresuid
INTERN_WEAK_FUNCTION(__x86_asm32_int80_getresuid)
	.cfi_startproc simple
	.cfi_personality 0, x86_syscall_personality_asm32_int80
	.cfi_lsda 0, 0xa5
	.cfi_iret_signal_frame
	.cfi_def_cfa %esp, 0
	pushl_cfi %ds
	.cfi_restore_iret_ds_or_offset -4
	pushl_cfi %es
	.cfi_restore_iret_es_or_offset -8
	pushl_cfi %fs
	.cfi_restore_iret_fs_or_offset -12
	movw   $(SEGMENT_USER_DATA_RPL), %ax
	movw   %ax, %ds
	movw   %ax, %es
	movw   $(SEGMENT_KERNEL_FSBASE), %ax
	movw   %ax, %fs
	pushl_cfi_r %edx  /* Arg #2 */
	pushl_cfi_r %ecx  /* Arg #1 */
	pushl_cfi_r %ebx  /* Arg #0 */
	EXTERN(sys_getresuid)
	call   sys_getresuid
	popl_cfi_r %ebx
	popl_cfi_r %ecx
	popl_cfi_r %edx
	popl_cfi %fs
	.cfi_restore_iret_fs
	popl_cfi %es
	.cfi_restore_iret_es
	popl_cfi %ds
	.cfi_restore_iret_ds
	iret
	.cfi_endproc
END(__x86_asm32_int80_getresuid)

/* errno_t vm86(int TODO_PROTOTYPE) */
.section .text.x86.asm32_syscall_int80.vm86
INTERN_WEAK_FUNCTION(__x86_asm32_int80_vm86)
	.cfi_startproc simple
	.cfi_personality 0, x86_syscall_personality_asm32_int80
	.cfi_lsda 0, 0xa6
	.cfi_iret_signal_frame
	.cfi_def_cfa %esp, 0
	pushl_cfi %ds
	.cfi_restore_iret_ds_or_offset -4
	pushl_cfi %es
	.cfi_restore_iret_es_or_offset -8
	pushl_cfi %fs
	.cfi_restore_iret_fs_or_offset -12
	movw   $(SEGMENT_USER_DATA_RPL), %ax
	movw   %ax, %ds
	movw   %ax, %es
	movw   $(SEGMENT_KERNEL_FSBASE), %ax
	movw   %ax, %fs
	pushl_cfi_r %ecx
	pushl_cfi_r %edx
	pushl_cfi_r %ebx  /* Arg #0 */
	EXTERN(sys_vm86)
	call   sys_vm86
	popl_cfi_r %ebx
	popl_cfi_r %edx
	popl_cfi_r %ecx
	popl_cfi %fs
	.cfi_restore_iret_fs
	popl_cfi %es
	.cfi_restore_iret_es
	popl_cfi %ds
	.cfi_restore_iret_ds
	iret
	.cfi_endproc
END(__x86_asm32_int80_vm86)

/* errno_t query_module(void) */
.section .text.x86.asm32_syscall_int80.query_module
INTERN_WEAK_FUNCTION(__x86_asm32_int80_query_module)
	.cfi_startproc simple
	.cfi_personality 0, x86_syscall_personality_asm32_int80
	.cfi_lsda 0, 0xa7
	.cfi_iret_signal_frame
	.cfi_def_cfa %esp, 0
	pushl_cfi %ds
	.cfi_restore_iret_ds_or_offset -4
	pushl_cfi %es
	.cfi_restore_iret_es_or_offset -8
	pushl_cfi %fs
	.cfi_restore_iret_fs_or_offset -12
	movw   $(SEGMENT_USER_DATA_RPL), %ax
	movw   %ax, %ds
	movw   %ax, %es
	movw   $(SEGMENT_KERNEL_FSBASE), %ax
	movw   %ax, %fs
	pushl_cfi_r %ecx
	pushl_cfi_r %edx
	EXTERN(sys_query_module)
	call   sys_query_module
	popl_cfi_r %edx
	popl_cfi_r %ecx
	popl_cfi %fs
	.cfi_restore_iret_fs
	popl_cfi %es
	.cfi_restore_iret_es
	popl_cfi %ds
	.cfi_restore_iret_ds
	iret
	.cfi_endproc
END(__x86_asm32_int80_query_module)

/* ssize_t poll(struct pollfd *fds, size_t nfds, syscall_slong_t timeout) */
.section .text.x86.asm32_syscall_int80.poll
INTERN_WEAK_FUNCTION(__x86_asm32_int80_poll)
	.cfi_startproc simple
	.cfi_personality 0, x86_syscall_personality_asm32_int80
	.cfi_lsda 0, 0xa8
	.cfi_iret_signal_frame
	.cfi_def_cfa %esp, 0
	pushl_cfi %ds
	.cfi_restore_iret_ds_or_offset -4
	pushl_cfi %es
	.cfi_restore_iret_es_or_offset -8
	pushl_cfi %fs
	.cfi_restore_iret_fs_or_offset -12
	movw   $(SEGMENT_USER_DATA_RPL), %ax
	movw   %ax, %ds
	movw   %ax, %es
	movw   $(SEGMENT_KERNEL_FSBASE), %ax
	movw   %ax, %fs
	pushl_cfi_r %edx  /* Arg #2 */
	pushl_cfi_r %ecx  /* Arg #1 */
	pushl_cfi_r %ebx  /* Arg #0 */
	EXTERN(sys_poll)
	call   sys_poll
	popl_cfi_r %ebx
	popl_cfi_r %ecx
	popl_cfi_r %edx
	popl_cfi %fs
	.cfi_restore_iret_fs
	popl_cfi %es
	.cfi_restore_iret_es
	popl_cfi %ds
	.cfi_restore_iret_ds
	iret
	.cfi_endproc
END(__x86_asm32_int80_poll)

/* errno_t nfsservctl(int TODO_PROTOTYPE) */
.section .text.x86.asm32_syscall_int80.nfsservctl
INTERN_WEAK_FUNCTION(__x86_asm32_int80_nfsservctl)
	.cfi_startproc simple
	.cfi_personality 0, x86_syscall_personality_asm32_int80
	.cfi_lsda 0, 0xa9
	.cfi_iret_signal_frame
	.cfi_def_cfa %esp, 0
	pushl_cfi %ds
	.cfi_restore_iret_ds_or_offset -4
	pushl_cfi %es
	.cfi_restore_iret_es_or_offset -8
	pushl_cfi %fs
	.cfi_restore_iret_fs_or_offset -12
	movw   $(SEGMENT_USER_DATA_RPL), %ax
	movw   %ax, %ds
	movw   %ax, %es
	movw   $(SEGMENT_KERNEL_FSBASE), %ax
	movw   %ax, %fs
	pushl_cfi_r %ecx
	pushl_cfi_r %edx
	pushl_cfi_r %ebx  /* Arg #0 */
	EXTERN(sys_nfsservctl)
	call   sys_nfsservctl
	popl_cfi_r %ebx
	popl_cfi_r %edx
	popl_cfi_r %ecx
	popl_cfi %fs
	.cfi_restore_iret_fs
	popl_cfi %es
	.cfi_restore_iret_es
	popl_cfi %ds
	.cfi_restore_iret_ds
	iret
	.cfi_endproc
END(__x86_asm32_int80_nfsservctl)

/* >> setresgid(2)
 * Set the real, effective, and saved GID of the calling thread.
 * @return: 0 : Success
 * @throw: E_INSUFFICIENT_RIGHTS:CAP_SETGID: [...] */
/* errno_t setresgid(uint16_t rgid, uint16_t egid, uint16_t sgid) */
.section .text.x86.asm32_syscall_int80.setresgid
INTERN_WEAK_FUNCTION(__x86_asm32_int80_setresgid)
	.cfi_startproc simple
	.cfi_personality 0, x86_syscall_personality_asm32_int80
	.cfi_lsda 0, 0xaa
	.cfi_iret_signal_frame
	.cfi_def_cfa %esp, 0
	pushl_cfi %ds
	.cfi_restore_iret_ds_or_offset -4
	pushl_cfi %es
	.cfi_restore_iret_es_or_offset -8
	pushl_cfi %fs
	.cfi_restore_iret_fs_or_offset -12
	movw   $(SEGMENT_USER_DATA_RPL), %ax
	movw   %ax, %ds
	movw   %ax, %es
	movw   $(SEGMENT_KERNEL_FSBASE), %ax
	movw   %ax, %fs
	pushl_cfi_r %edx  /* Arg #2 */
	pushl_cfi_r %ecx  /* Arg #1 */
	pushl_cfi_r %ebx  /* Arg #0 */
	EXTERN(sys_setresgid)
	call   sys_setresgid
	popl_cfi_r %ebx
	popl_cfi_r %ecx
	popl_cfi_r %edx
	popl_cfi %fs
	.cfi_restore_iret_fs
	popl_cfi %es
	.cfi_restore_iret_es
	popl_cfi %ds
	.cfi_restore_iret_ds
	iret
	.cfi_endproc
END(__x86_asm32_int80_setresgid)

/* >> getresgid(2)
 * Get the real, effective, and saved GID of the calling thread.
 * @return: 0 : Success */
/* errno_t getresgid(uint16_t *rgid, uint16_t *egid, uint16_t *sgid) */
.section .text.x86.asm32_syscall_int80.getresgid
INTERN_WEAK_FUNCTION(__x86_asm32_int80_getresgid)
	.cfi_startproc simple
	.cfi_personality 0, x86_syscall_personality_asm32_int80
	.cfi_lsda 0, 0xab
	.cfi_iret_signal_frame
	.cfi_def_cfa %esp, 0
	pushl_cfi %ds
	.cfi_restore_iret_ds_or_offset -4
	pushl_cfi %es
	.cfi_restore_iret_es_or_offset -8
	pushl_cfi %fs
	.cfi_restore_iret_fs_or_offset -12
	movw   $(SEGMENT_USER_DATA_RPL), %ax
	movw   %ax, %ds
	movw   %ax, %es
	movw   $(SEGMENT_KERNEL_FSBASE), %ax
	movw   %ax, %fs
	pushl_cfi_r %edx  /* Arg #2 */
	pushl_cfi_r %ecx  /* Arg #1 */
	pushl_cfi_r %ebx  /* Arg #0 */
	EXTERN(sys_getresgid)
	call   sys_getresgid
	popl_cfi_r %ebx
	popl_cfi_r %ecx
	popl_cfi_r %edx
	popl_cfi %fs
	.cfi_restore_iret_fs
	popl_cfi %es
	.cfi_restore_iret_es
	popl_cfi %ds
	.cfi_restore_iret_ds
	iret
	.cfi_endproc
END(__x86_asm32_int80_getresgid)

/* >> prctl(2)
 * System process control interface. (Linux compatible)
 * @param: command: One of `PR_*' (from <linux/prctl.h>)
 * @param: ... : Up  to 4 additional arguments (dependent on `command')
 *               Note that some control codes  require you to pass  `0'
 *               for  all seemingly "unused" arguments. In these cases,
 *               the documentation for that command includes the number
 *               of unused, but required trailing 0s in its comment.
 * @return: * :  Return value depends on `command' */
/* syscall_slong_t prctl(unsigned int command, syscall_ulong_t arg2, syscall_ulong_t arg3, syscall_ulong_t arg4, syscall_ulong_t arg5) */
.section .text.x86.asm32_syscall_int80.prctl
INTERN_WEAK_FUNCTION(__x86_asm32_int80_prctl)
	.cfi_startproc simple
	.cfi_personality 0, x86_syscall_personality_asm32_int80
	.cfi_lsda 0, 0xac
	.cfi_iret_signal_frame
	.cfi_def_cfa %esp, 0
	pushl_cfi %ds
	.cfi_restore_iret_ds_or_offset -4
	pushl_cfi %es
	.cfi_restore_iret_es_or_offset -8
	pushl_cfi %fs
	.cfi_restore_iret_fs_or_offset -12
	movw   $(SEGMENT_USER_DATA_RPL), %ax
	movw   %ax, %ds
	movw   %ax, %es
	movw   $(SEGMENT_KERNEL_FSBASE), %ax
	movw   %ax, %fs
	pushl_cfi_r %edi  /* Arg #4 */
	pushl_cfi_r %esi  /* Arg #3 */
	pushl_cfi_r %edx  /* Arg #2 */
	pushl_cfi_r %ecx  /* Arg #1 */
	pushl_cfi_r %ebx  /* Arg #0 */
	EXTERN(sys_prctl)
	call   sys_prctl
	popl_cfi_r %ebx
	popl_cfi_r %ecx
	popl_cfi_r %edx
	addl   $(8), %esp
	.cfi_adjust_cfa_offset -8
	popl_cfi %fs
	.cfi_restore_iret_fs
	popl_cfi %es
	.cfi_restore_iret_es
	popl_cfi %ds
	.cfi_restore_iret_ds
	iret
	.cfi_endproc
END(__x86_asm32_int80_prctl)

/* void rt_sigreturn(void) */
.section .text.x86.asm32_syscall_int80.rt_sigreturn
INTERN_WEAK_FUNCTION(__x86_asm32_int80_rt_sigreturn)
	.cfi_startproc simple
	.cfi_personality 0, x86_syscall_personality_asm32_int80
	.cfi_lsda 0, 0xad
	.cfi_iret_signal_frame
	.cfi_def_cfa %esp, 0
	pushl_cfi %ds
	.cfi_restore_iret_ds_or_offset -4
	pushl_cfi %es
	.cfi_restore_iret_es_or_offset -8
	pushl_cfi %fs
	.cfi_restore_iret_fs_or_offset -12
	movw   $(SEGMENT_USER_DATA_RPL), %ax
	movw   %ax, %ds
	movw   %ax, %es
	movw   $(SEGMENT_KERNEL_FSBASE), %ax
	movw   %ax, %fs
	pushl_cfi_r %ecx
	pushl_cfi_r %edx
	EXTERN(sys_rt_sigreturn)
	call   sys_rt_sigreturn
	popl_cfi_r %edx
	popl_cfi_r %ecx
	popl_cfi %fs
	.cfi_restore_iret_fs
	popl_cfi %es
	.cfi_restore_iret_es
	popl_cfi %ds
	.cfi_restore_iret_ds
	iret
	.cfi_endproc
END(__x86_asm32_int80_rt_sigreturn)

/* errno_t rt_sigaction(signo_t signo, struct __kernel_sigactionx32 const *act, struct __kernel_sigactionx32 *oact, size_t sigsetsize) */
.section .text.x86.asm32_syscall_int80.rt_sigaction
INTERN_WEAK_FUNCTION(__x86_asm32_int80_rt_sigaction)
	.cfi_startproc simple
	.cfi_personality 0, x86_syscall_personality_asm32_int80
	.cfi_lsda 0, 0xae
	.cfi_iret_signal_frame
	.cfi_def_cfa %esp, 0
	pushl_cfi %ds
	.cfi_restore_iret_ds_or_offset -4
	pushl_cfi %es
	.cfi_restore_iret_es_or_offset -8
	pushl_cfi %fs
	.cfi_restore_iret_fs_or_offset -12
	movw   $(SEGMENT_USER_DATA_RPL), %ax
	movw   %ax, %ds
	movw   %ax, %es
	movw   $(SEGMENT_KERNEL_FSBASE), %ax
	movw   %ax, %fs
	pushl_cfi_r %esi  /* Arg #3 */
	pushl_cfi_r %edx  /* Arg #2 */
	pushl_cfi_r %ecx  /* Arg #1 */
	pushl_cfi_r %ebx  /* Arg #0 */
	EXTERN(sys_rt_sigaction)
	call   sys_rt_sigaction
	popl_cfi_r %ebx
	popl_cfi_r %ecx
	popl_cfi_r %edx
	popl_cfi_r %esi
	popl_cfi %fs
	.cfi_restore_iret_fs
	popl_cfi %es
	.cfi_restore_iret_es
	popl_cfi %ds
	.cfi_restore_iret_ds
	iret
	.cfi_endproc
END(__x86_asm32_int80_rt_sigaction)

/* @param: how: One of `SIG_BLOCK', `SIG_UNBLOCK' or `SIG_SETMASK' */
/* errno_t rt_sigprocmask(syscall_ulong_t how, struct __sigset_struct const *set, struct __sigset_struct *oset, size_t sigsetsize) */
.section .text.x86.asm32_syscall_int80.rt_sigprocmask
INTERN_WEAK_FUNCTION(__x86_asm32_int80_rt_sigprocmask)
	.cfi_startproc simple
	.cfi_personality 0, x86_syscall_personality_asm32_int80
	.cfi_lsda 0, 0xaf
	.cfi_iret_signal_frame
	.cfi_def_cfa %esp, 0
	pushl_cfi %ds
	.cfi_restore_iret_ds_or_offset -4
	pushl_cfi %es
	.cfi_restore_iret_es_or_offset -8
	pushl_cfi %fs
	.cfi_restore_iret_fs_or_offset -12
	movw   $(SEGMENT_USER_DATA_RPL), %ax
	movw   %ax, %ds
	movw   %ax, %es
	movw   $(SEGMENT_KERNEL_FSBASE), %ax
	movw   %ax, %fs
	pushl_cfi_r %esi  /* Arg #3 */
	pushl_cfi_r %edx  /* Arg #2 */
	pushl_cfi_r %ecx  /* Arg #1 */
	pushl_cfi_r %ebx  /* Arg #0 */
	EXTERN(sys_rt_sigprocmask)
	call   sys_rt_sigprocmask
	popl_cfi_r %ebx
	popl_cfi_r %ecx
	popl_cfi_r %edx
	popl_cfi_r %esi
	popl_cfi %fs
	.cfi_restore_iret_fs
	popl_cfi %es
	.cfi_restore_iret_es
	popl_cfi %ds
	.cfi_restore_iret_ds
	iret
	.cfi_endproc
END(__x86_asm32_int80_rt_sigprocmask)

/* errno_t rt_sigpending(struct __sigset_struct *set, size_t sigsetsize) */
.section .text.x86.asm32_syscall_int80.rt_sigpending
INTERN_WEAK_FUNCTION(__x86_asm32_int80_rt_sigpending)
	.cfi_startproc simple
	.cfi_personality 0, x86_syscall_personality_asm32_int80
	.cfi_lsda 0, 0xb0
	.cfi_iret_signal_frame
	.cfi_def_cfa %esp, 0
	pushl_cfi %ds
	.cfi_restore_iret_ds_or_offset -4
	pushl_cfi %es
	.cfi_restore_iret_es_or_offset -8
	pushl_cfi %fs
	.cfi_restore_iret_fs_or_offset -12
	movw   $(SEGMENT_USER_DATA_RPL), %ax
	movw   %ax, %ds
	movw   %ax, %es
	movw   $(SEGMENT_KERNEL_FSBASE), %ax
	movw   %ax, %fs
	pushl_cfi_r %edx
	pushl_cfi_r %ecx  /* Arg #1 */
	pushl_cfi_r %ebx  /* Arg #0 */
	EXTERN(sys_rt_sigpending)
	call   sys_rt_sigpending
	popl_cfi_r %ebx
	popl_cfi_r %ecx
	popl_cfi_r %edx
	popl_cfi %fs
	.cfi_restore_iret_fs
	popl_cfi %es
	.cfi_restore_iret_es
	popl_cfi %ds
	.cfi_restore_iret_ds
	iret
	.cfi_endproc
END(__x86_asm32_int80_rt_sigpending)

/* syscall_slong_t rt_sigtimedwait(struct __sigset_struct const *set, struct __siginfox32_struct *info, struct timespecx32 const *timeout, size_t sigsetsize) */
.section .text.x86.asm32_syscall_int80.rt_sigtimedwait
INTERN_WEAK_FUNCTION(__x86_asm32_int80_rt_sigtimedwait)
	.cfi_startproc simple
	.cfi_personality 0, x86_syscall_personality_asm32_int80
	.cfi_lsda 0, 0xb1
	.cfi_iret_signal_frame
	.cfi_def_cfa %esp, 0
	pushl_cfi %ds
	.cfi_restore_iret_ds_or_offset -4
	pushl_cfi %es
	.cfi_restore_iret_es_or_offset -8
	pushl_cfi %fs
	.cfi_restore_iret_fs_or_offset -12
	movw   $(SEGMENT_USER_DATA_RPL), %ax
	movw   %ax, %ds
	movw   %ax, %es
	movw   $(SEGMENT_KERNEL_FSBASE), %ax
	movw   %ax, %fs
	pushl_cfi_r %esi  /* Arg #3 */
	pushl_cfi_r %edx  /* Arg #2 */
	pushl_cfi_r %ecx  /* Arg #1 */
	pushl_cfi_r %ebx  /* Arg #0 */
	EXTERN(sys_rt_sigtimedwait)
	call   sys_rt_sigtimedwait
	popl_cfi_r %ebx
	popl_cfi_r %ecx
	popl_cfi_r %edx
	popl_cfi_r %esi
	popl_cfi %fs
	.cfi_restore_iret_fs
	popl_cfi %es
	.cfi_restore_iret_es
	popl_cfi %ds
	.cfi_restore_iret_ds
	iret
	.cfi_endproc
END(__x86_asm32_int80_rt_sigtimedwait)

/* @param: usigno: The signal that should be sent
 * @param: uinfo:  [0..1] Additional signal information
 * @throw: E_INVALID_ARGUMENT_UNEXPECTED_COMMAND:E_INVALID_ARGUMENT_CONTEXT_SIGINFO_SIGNO: [...]
 * @throw: E_INVALID_ARGUMENT_BAD_VALUE:E_INVALID_ARGUMENT_CONTEXT_BAD_SIGNO:              [...]
 * @throw: E_INVALID_ARGUMENT_BAD_VALUE:E_INVALID_ARGUMENT_CONTEXT_RAISE_SIGINFO_BADCODE:  [...]
 * @throw: E_ILLEGAL_OPERATION:                                                            [...] */
/* errno_t rt_sigqueueinfo(pid_t pid, signo_t usigno, struct __siginfox32_struct const *uinfo) */
.section .text.x86.asm32_syscall_int80.rt_sigqueueinfo
INTERN_WEAK_FUNCTION(__x86_asm32_int80_rt_sigqueueinfo)
	.cfi_startproc simple
	.cfi_personality 0, x86_syscall_personality_asm32_int80
	.cfi_lsda 0, 0xb2
	.cfi_iret_signal_frame
	.cfi_def_cfa %esp, 0
	pushl_cfi %ds
	.cfi_restore_iret_ds_or_offset -4
	pushl_cfi %es
	.cfi_restore_iret_es_or_offset -8
	pushl_cfi %fs
	.cfi_restore_iret_fs_or_offset -12
	movw   $(SEGMENT_USER_DATA_RPL), %ax
	movw   %ax, %ds
	movw   %ax, %es
	movw   $(SEGMENT_KERNEL_FSBASE), %ax
	movw   %ax, %fs
	pushl_cfi_r %edx  /* Arg #2 */
	pushl_cfi_r %ecx  /* Arg #1 */
	pushl_cfi_r %ebx  /* Arg #0 */
	EXTERN(sys_rt_sigqueueinfo)
	call   sys_rt_sigqueueinfo
	popl_cfi_r %ebx
	popl_cfi_r %ecx
	popl_cfi_r %edx
	popl_cfi %fs
	.cfi_restore_iret_fs
	popl_cfi %es
	.cfi_restore_iret_es
	popl_cfi %ds
	.cfi_restore_iret_ds
	iret
	.cfi_endproc
END(__x86_asm32_int80_rt_sigqueueinfo)

/* >> sigsuspend(2), rt_sigsuspend(2)
 * Atomically save and  set the caller's  signal mask to  `set', then wait  for
 * one of the unmasked (iow: `!sigismember')-signals to arrive before restoring
 * the old signal mask.
 * @param: set: The set of signals on which to wait
 * @return: -1: [errno=EINTR] The signal handler for `signo' was executed. */
/* errno_t rt_sigsuspend(struct __sigset_struct const *set, size_t sigsetsize) */
.section .text.x86.asm32_syscall_int80.rt_sigsuspend
INTERN_WEAK_FUNCTION(__x86_asm32_int80_rt_sigsuspend)
	.cfi_startproc simple
	.cfi_personality 0, x86_syscall_personality_asm32_int80
	.cfi_lsda 0, 0xb3
	.cfi_iret_signal_frame
	.cfi_def_cfa %esp, 0
	pushl_cfi %ds
	.cfi_restore_iret_ds_or_offset -4
	pushl_cfi %es
	.cfi_restore_iret_es_or_offset -8
	pushl_cfi %fs
	.cfi_restore_iret_fs_or_offset -12
	movw   $(SEGMENT_USER_DATA_RPL), %ax
	movw   %ax, %ds
	movw   %ax, %es
	movw   $(SEGMENT_KERNEL_FSBASE), %ax
	movw   %ax, %fs
	pushl_cfi_r %edx
	pushl_cfi_r %ecx  /* Arg #1 */
	pushl_cfi_r %ebx  /* Arg #0 */
	EXTERN(sys_rt_sigsuspend)
	call   sys_rt_sigsuspend
	popl_cfi_r %ebx
	popl_cfi_r %ecx
	popl_cfi_r %edx
	popl_cfi %fs
	.cfi_restore_iret_fs
	popl_cfi %es
	.cfi_restore_iret_es
	popl_cfi %ds
	.cfi_restore_iret_ds
	iret
	.cfi_endproc
END(__x86_asm32_int80_rt_sigsuspend)

/* ssize_t pread64(fd_t fd, void *buf, size_t bufsize, uint64_t offset) */
.section .text.x86.asm32_syscall_int80.pread64
INTERN_WEAK_FUNCTION(__x86_asm32_int80_pread64)
	.cfi_startproc simple
	.cfi_personality 0, x86_syscall_personality_asm32_int80
	.cfi_lsda 0, 0xb4
	.cfi_iret_signal_frame
	.cfi_def_cfa %esp, 0
	pushl_cfi %ds
	.cfi_restore_iret_ds_or_offset -4
	pushl_cfi %es
	.cfi_restore_iret_es_or_offset -8
	pushl_cfi %fs
	.cfi_restore_iret_fs_or_offset -12
	movw   $(SEGMENT_USER_DATA_RPL), %ax
	movw   %ax, %ds
	movw   %ax, %es
	movw   $(SEGMENT_KERNEL_FSBASE), %ax
	movw   %ax, %fs
	pushl_cfi_r %edi  /* Arg #4 */
	pushl_cfi_r %esi  /* Arg #3 */
	pushl_cfi_r %edx  /* Arg #2 */
	pushl_cfi_r %ecx  /* Arg #1 */
	pushl_cfi_r %ebx  /* Arg #0 */
	EXTERN(sys_pread64)
	call   sys_pread64
	popl_cfi_r %ebx
	popl_cfi_r %ecx
	popl_cfi_r %edx
	addl   $(8), %esp
	.cfi_adjust_cfa_offset -8
	popl_cfi %fs
	.cfi_restore_iret_fs
	popl_cfi %es
	.cfi_restore_iret_es
	popl_cfi %ds
	.cfi_restore_iret_ds
	iret
	.cfi_endproc
END(__x86_asm32_int80_pread64)

/* ssize_t pwrite64(fd_t fd, void const *buf, size_t bufsize, uint64_t offset) */
.section .text.x86.asm32_syscall_int80.pwrite64
INTERN_WEAK_FUNCTION(__x86_asm32_int80_pwrite64)
	.cfi_startproc simple
	.cfi_personality 0, x86_syscall_personality_asm32_int80
	.cfi_lsda 0, 0xb5
	.cfi_iret_signal_frame
	.cfi_def_cfa %esp, 0
	pushl_cfi %ds
	.cfi_restore_iret_ds_or_offset -4
	pushl_cfi %es
	.cfi_restore_iret_es_or_offset -8
	pushl_cfi %fs
	.cfi_restore_iret_fs_or_offset -12
	movw   $(SEGMENT_USER_DATA_RPL), %ax
	movw   %ax, %ds
	movw   %ax, %es
	movw   $(SEGMENT_KERNEL_FSBASE), %ax
	movw   %ax, %fs
	pushl_cfi_r %edi  /* Arg #4 */
	pushl_cfi_r %esi  /* Arg #3 */
	pushl_cfi_r %edx  /* Arg #2 */
	pushl_cfi_r %ecx  /* Arg #1 */
	pushl_cfi_r %ebx  /* Arg #0 */
	EXTERN(sys_pwrite64)
	call   sys_pwrite64
	popl_cfi_r %ebx
	popl_cfi_r %ecx
	popl_cfi_r %edx
	addl   $(8), %esp
	.cfi_adjust_cfa_offset -8
	popl_cfi %fs
	.cfi_restore_iret_fs
	popl_cfi %es
	.cfi_restore_iret_es
	popl_cfi %ds
	.cfi_restore_iret_ds
	iret
	.cfi_endproc
END(__x86_asm32_int80_pwrite64)

/* errno_t chown(char const *filename, uint16_t owner, uint16_t group) */
.section .text.x86.asm32_syscall_int80.chown
INTERN_WEAK_FUNCTION(__x86_asm32_int80_chown)
	.cfi_startproc simple
	.cfi_personality 0, x86_syscall_personality_asm32_int80
	.cfi_lsda 0, 0xb6
	.cfi_iret_signal_frame
	.cfi_def_cfa %esp, 0
	pushl_cfi %ds
	.cfi_restore_iret_ds_or_offset -4
	pushl_cfi %es
	.cfi_restore_iret_es_or_offset -8
	pushl_cfi %fs
	.cfi_restore_iret_fs_or_offset -12
	movw   $(SEGMENT_USER_DATA_RPL), %ax
	movw   %ax, %ds
	movw   %ax, %es
	movw   $(SEGMENT_KERNEL_FSBASE), %ax
	movw   %ax, %fs
	pushl_cfi_r %edx  /* Arg #2 */
	pushl_cfi_r %ecx  /* Arg #1 */
	pushl_cfi_r %ebx  /* Arg #0 */
	EXTERN(sys_chown)
	call   sys_chown
	popl_cfi_r %ebx
	popl_cfi_r %ecx
	popl_cfi_r %edx
	popl_cfi %fs
	.cfi_restore_iret_fs
	popl_cfi %es
	.cfi_restore_iret_es
	popl_cfi %ds
	.cfi_restore_iret_ds
	iret
	.cfi_endproc
END(__x86_asm32_int80_chown)

/* ssize_t getcwd(char *buf, size_t size) */
.section .text.x86.asm32_syscall_int80.getcwd
INTERN_WEAK_FUNCTION(__x86_asm32_int80_getcwd)
	.cfi_startproc simple
	.cfi_personality 0, x86_syscall_personality_asm32_int80
	.cfi_lsda 0, 0xb7
	.cfi_iret_signal_frame
	.cfi_def_cfa %esp, 0
	pushl_cfi %ds
	.cfi_restore_iret_ds_or_offset -4
	pushl_cfi %es
	.cfi_restore_iret_es_or_offset -8
	pushl_cfi %fs
	.cfi_restore_iret_fs_or_offset -12
	movw   $(SEGMENT_USER_DATA_RPL), %ax
	movw   %ax, %ds
	movw   %ax, %es
	movw   $(SEGMENT_KERNEL_FSBASE), %ax
	movw   %ax, %fs
	pushl_cfi_r %edx
	pushl_cfi_r %ecx  /* Arg #1 */
	pushl_cfi_r %ebx  /* Arg #0 */
	EXTERN(sys_getcwd)
	call   sys_getcwd
	popl_cfi_r %ebx
	popl_cfi_r %ecx
	popl_cfi_r %edx
	popl_cfi %fs
	.cfi_restore_iret_fs
	popl_cfi %es
	.cfi_restore_iret_es
	popl_cfi %ds
	.cfi_restore_iret_ds
	iret
	.cfi_endproc
END(__x86_asm32_int80_getcwd)

/* errno_t capget(int TODO_PROTOTYPE) */
.section .text.x86.asm32_syscall_int80.capget
INTERN_WEAK_FUNCTION(__x86_asm32_int80_capget)
	.cfi_startproc simple
	.cfi_personality 0, x86_syscall_personality_asm32_int80
	.cfi_lsda 0, 0xb8
	.cfi_iret_signal_frame
	.cfi_def_cfa %esp, 0
	pushl_cfi %ds
	.cfi_restore_iret_ds_or_offset -4
	pushl_cfi %es
	.cfi_restore_iret_es_or_offset -8
	pushl_cfi %fs
	.cfi_restore_iret_fs_or_offset -12
	movw   $(SEGMENT_USER_DATA_RPL), %ax
	movw   %ax, %ds
	movw   %ax, %es
	movw   $(SEGMENT_KERNEL_FSBASE), %ax
	movw   %ax, %fs
	pushl_cfi_r %ecx
	pushl_cfi_r %edx
	pushl_cfi_r %ebx  /* Arg #0 */
	EXTERN(sys_capget)
	call   sys_capget
	popl_cfi_r %ebx
	popl_cfi_r %edx
	popl_cfi_r %ecx
	popl_cfi %fs
	.cfi_restore_iret_fs
	popl_cfi %es
	.cfi_restore_iret_es
	popl_cfi %ds
	.cfi_restore_iret_ds
	iret
	.cfi_endproc
END(__x86_asm32_int80_capget)

/* errno_t capset(int TODO_PROTOTYPE) */
.section .text.x86.asm32_syscall_int80.capset
INTERN_WEAK_FUNCTION(__x86_asm32_int80_capset)
	.cfi_startproc simple
	.cfi_personality 0, x86_syscall_personality_asm32_int80
	.cfi_lsda 0, 0xb9
	.cfi_iret_signal_frame
	.cfi_def_cfa %esp, 0
	pushl_cfi %ds
	.cfi_restore_iret_ds_or_offset -4
	pushl_cfi %es
	.cfi_restore_iret_es_or_offset -8
	pushl_cfi %fs
	.cfi_restore_iret_fs_or_offset -12
	movw   $(SEGMENT_USER_DATA_RPL), %ax
	movw   %ax, %ds
	movw   %ax, %es
	movw   $(SEGMENT_KERNEL_FSBASE), %ax
	movw   %ax, %fs
	pushl_cfi_r %ecx
	pushl_cfi_r %edx
	pushl_cfi_r %ebx  /* Arg #0 */
	EXTERN(sys_capset)
	call   sys_capset
	popl_cfi_r %ebx
	popl_cfi_r %edx
	popl_cfi_r %ecx
	popl_cfi %fs
	.cfi_restore_iret_fs
	popl_cfi %es
	.cfi_restore_iret_es
	popl_cfi %ds
	.cfi_restore_iret_ds
	iret
	.cfi_endproc
END(__x86_asm32_int80_capset)

/* errno_t sigaltstack(struct __sigaltstackx32 const *ss, struct __sigaltstackx32 *oss) */
.section .text.x86.asm32_syscall_int80.sigaltstack
INTERN_WEAK_FUNCTION(__x86_asm32_int80_sigaltstack)
	.cfi_startproc simple
	.cfi_personality 0, x86_syscall_personality_asm32_int80
	.cfi_lsda 0, 0xba
	.cfi_iret_signal_frame
	.cfi_def_cfa %esp, 0
	pushl_cfi %ds
	.cfi_restore_iret_ds_or_offset -4
	pushl_cfi %es
	.cfi_restore_iret_es_or_offset -8
	pushl_cfi %fs
	.cfi_restore_iret_fs_or_offset -12
	movw   $(SEGMENT_USER_DATA_RPL), %ax
	movw   %ax, %ds
	movw   %ax, %es
	movw   $(SEGMENT_KERNEL_FSBASE), %ax
	movw   %ax, %fs
	pushl_cfi_r %edx
	pushl_cfi_r %ecx  /* Arg #1 */
	pushl_cfi_r %ebx  /* Arg #0 */
	EXTERN(sys_sigaltstack)
	call   sys_sigaltstack
	popl_cfi_r %ebx
	popl_cfi_r %ecx
	popl_cfi_r %edx
	popl_cfi %fs
	.cfi_restore_iret_fs
	popl_cfi %es
	.cfi_restore_iret_es
	popl_cfi %ds
	.cfi_restore_iret_ds
	iret
	.cfi_endproc
END(__x86_asm32_int80_sigaltstack)

/* Read up to `num_bytes' from `infd', and write that data to `outfd'
 * Files must be opened with the relevant access permissions (same as
 * would be enforced by `read(2)' and `write(2)')
 * When `pin_offset != NULL', the pointed-to location is used to track
 * the read-position in `infd'. Note that in the event that writing to
 * this address faults, data may  have still been written to  `outfd',
 * so be sure to have this point to writable memory.
 * @param: outfd:      Output file descriptor
 * @param: infd:       Input file descriptor
 * @param: pin_offset: If non-NULL, position from which to start reading,
 *                     and updated to reflect  how much could be  copied.
 * @param: num_bytes:  The max number of bytes to transfer
 * @return: * :        The actual number of bytes transferred */
/* ssize_t sendfile(fd_t outfd, fd_t infd, __ULONG32_TYPE__ *pin_offset, size_t num_bytes) */
.section .text.x86.asm32_syscall_int80.sendfile
INTERN_WEAK_FUNCTION(__x86_asm32_int80_sendfile)
	.cfi_startproc simple
	.cfi_personality 0, x86_syscall_personality_asm32_int80
	.cfi_lsda 0, 0xbb
	.cfi_iret_signal_frame
	.cfi_def_cfa %esp, 0
	pushl_cfi %ds
	.cfi_restore_iret_ds_or_offset -4
	pushl_cfi %es
	.cfi_restore_iret_es_or_offset -8
	pushl_cfi %fs
	.cfi_restore_iret_fs_or_offset -12
	movw   $(SEGMENT_USER_DATA_RPL), %ax
	movw   %ax, %ds
	movw   %ax, %es
	movw   $(SEGMENT_KERNEL_FSBASE), %ax
	movw   %ax, %fs
	pushl_cfi_r %esi  /* Arg #3 */
	pushl_cfi_r %edx  /* Arg #2 */
	pushl_cfi_r %ecx  /* Arg #1 */
	pushl_cfi_r %ebx  /* Arg #0 */
	EXTERN(sys_sendfile)
	call   sys_sendfile
	popl_cfi_r %ebx
	popl_cfi_r %ecx
	popl_cfi_r %edx
	popl_cfi_r %esi
	popl_cfi %fs
	.cfi_restore_iret_fs
	popl_cfi %es
	.cfi_restore_iret_es
	popl_cfi %ds
	.cfi_restore_iret_ds
	iret
	.cfi_endproc
END(__x86_asm32_int80_sendfile)

/* errno_t getpmsg(void) */
.section .text.x86.asm32_syscall_int80.getpmsg
INTERN_WEAK_FUNCTION(__x86_asm32_int80_getpmsg)
	.cfi_startproc simple
	.cfi_personality 0, x86_syscall_personality_asm32_int80
	.cfi_lsda 0, 0xbc
	.cfi_iret_signal_frame
	.cfi_def_cfa %esp, 0
	pushl_cfi %ds
	.cfi_restore_iret_ds_or_offset -4
	pushl_cfi %es
	.cfi_restore_iret_es_or_offset -8
	pushl_cfi %fs
	.cfi_restore_iret_fs_or_offset -12
	movw   $(SEGMENT_USER_DATA_RPL), %ax
	movw   %ax, %ds
	movw   %ax, %es
	movw   $(SEGMENT_KERNEL_FSBASE), %ax
	movw   %ax, %fs
	pushl_cfi_r %ecx
	pushl_cfi_r %edx
	EXTERN(sys_getpmsg)
	call   sys_getpmsg
	popl_cfi_r %edx
	popl_cfi_r %ecx
	popl_cfi %fs
	.cfi_restore_iret_fs
	popl_cfi %es
	.cfi_restore_iret_es
	popl_cfi %ds
	.cfi_restore_iret_ds
	iret
	.cfi_endproc
END(__x86_asm32_int80_getpmsg)

/* errno_t putpmsg(void) */
.section .text.x86.asm32_syscall_int80.putpmsg
INTERN_WEAK_FUNCTION(__x86_asm32_int80_putpmsg)
	.cfi_startproc simple
	.cfi_personality 0, x86_syscall_personality_asm32_int80
	.cfi_lsda 0, 0xbd
	.cfi_iret_signal_frame
	.cfi_def_cfa %esp, 0
	pushl_cfi %ds
	.cfi_restore_iret_ds_or_offset -4
	pushl_cfi %es
	.cfi_restore_iret_es_or_offset -8
	pushl_cfi %fs
	.cfi_restore_iret_fs_or_offset -12
	movw   $(SEGMENT_USER_DATA_RPL), %ax
	movw   %ax, %ds
	movw   %ax, %es
	movw   $(SEGMENT_KERNEL_FSBASE), %ax
	movw   %ax, %fs
	pushl_cfi_r %ecx
	pushl_cfi_r %edx
	EXTERN(sys_putpmsg)
	call   sys_putpmsg
	popl_cfi_r %edx
	popl_cfi_r %ecx
	popl_cfi %fs
	.cfi_restore_iret_fs
	popl_cfi %es
	.cfi_restore_iret_es
	popl_cfi %ds
	.cfi_restore_iret_ds
	iret
	.cfi_endproc
END(__x86_asm32_int80_putpmsg)

/* Same as `fork(2)', but the child process may be executed within in the same VM
 * as the parent process, with the  parent process remaining suspended until  the
 * child process invokes one of the following system calls:
 *   - `exit(2)'       Terminate the child process
 *   - `exit_group(2)' Terminate the child process
 *   - `execve(2)'     Create a new VM that is populated with the specified process
 *                     image. The parent process will  only be resumed in case  the
 *                     new  program image could  be loaded successfully. Otherwise,
 *                     the call  to  `execve(2)'  returns normally  in  the  child.
 *                     Other functions from the exec()-family behave the same
 * 
 * Care  must be taken when using this system call, since you have to make sure that
 * the  child process doesn't clobber any part of its (shared) stack that may be re-
 * used once execution resumes in  the parent process. The  same also goes for  heap
 * functions,  but generally speaking:  you really shouldn't  do anything that isn't
 * reentrant after calling any one of the fork() functions (since anything but would
 * rely on underlying implementations making proper use of pthread_atfork(3),  which
 * is something that KOS intentionally doesn't do,  since I feel like doing so  only
 * adds unnecessary bloat to code that doesn't rely on this)
 * 
 * Additionally, this system call may be implemented as an alias for `fork(2)', in
 * which  case the parent process will not  actually get suspended until the child
 * process performs any of the actions above. */
/* pid_t vfork(void) */
.section .text.x86.asm32_syscall_int80.vfork
INTERN_WEAK_FUNCTION(__x86_asm32_int80_vfork)
	.cfi_startproc simple
	.cfi_personality 0, x86_syscall_personality_asm32_int80
	.cfi_lsda 0, 0xbe
	.cfi_iret_signal_frame
	.cfi_def_cfa %esp, 0
	pushl_cfi %ds
	.cfi_restore_iret_ds_or_offset -4
	pushl_cfi %es
	.cfi_restore_iret_es_or_offset -8
	pushl_cfi %fs
	.cfi_restore_iret_fs_or_offset -12
	movw   $(SEGMENT_USER_DATA_RPL), %ax
	movw   %ax, %ds
	movw   %ax, %es
	movw   $(SEGMENT_KERNEL_FSBASE), %ax
	movw   %ax, %fs
	pushl_cfi_r %ecx
	pushl_cfi_r %edx
	EXTERN(sys_vfork)
	call   sys_vfork
	popl_cfi_r %edx
	popl_cfi_r %ecx
	popl_cfi %fs
	.cfi_restore_iret_fs
	popl_cfi %es
	.cfi_restore_iret_es
	popl_cfi %ds
	.cfi_restore_iret_ds
	iret
	.cfi_endproc
END(__x86_asm32_int80_vfork)

/* errno_t ugetrlimit(int TODO_PROTOTYPE) */
.section .text.x86.asm32_syscall_int80.ugetrlimit
INTERN_WEAK_FUNCTION(__x86_asm32_int80_ugetrlimit)
	.cfi_startproc simple
	.cfi_personality 0, x86_syscall_personality_asm32_int80
	.cfi_lsda 0, 0xbf
	.cfi_iret_signal_frame
	.cfi_def_cfa %esp, 0
	pushl_cfi %ds
	.cfi_restore_iret_ds_or_offset -4
	pushl_cfi %es
	.cfi_restore_iret_es_or_offset -8
	pushl_cfi %fs
	.cfi_restore_iret_fs_or_offset -12
	movw   $(SEGMENT_USER_DATA_RPL), %ax
	movw   %ax, %ds
	movw   %ax, %es
	movw   $(SEGMENT_KERNEL_FSBASE), %ax
	movw   %ax, %fs
	pushl_cfi_r %ecx
	pushl_cfi_r %edx
	pushl_cfi_r %ebx  /* Arg #0 */
	EXTERN(sys_ugetrlimit)
	call   sys_ugetrlimit
	popl_cfi_r %ebx
	popl_cfi_r %edx
	popl_cfi_r %ecx
	popl_cfi %fs
	.cfi_restore_iret_fs
	popl_cfi %es
	.cfi_restore_iret_es
	popl_cfi %ds
	.cfi_restore_iret_ds
	iret
	.cfi_endproc
END(__x86_asm32_int80_ugetrlimit)

/* void *mmap2(void *addr, size_t len, syscall_ulong_t prot, syscall_ulong_t flags, fd_t fd, syscall_ulong_t pgoffset) */
.section .text.x86.asm32_syscall_int80.mmap2
INTERN_WEAK_FUNCTION(__x86_asm32_int80_mmap2)
	.cfi_startproc simple
	.cfi_personality 0, x86_syscall_personality_asm32_int80
	.cfi_lsda 0, 0xc0
	.cfi_iret_signal_frame
	.cfi_def_cfa %esp, 0
	pushl_cfi %ds
	.cfi_restore_iret_ds_or_offset -4
	pushl_cfi %es
	.cfi_restore_iret_es_or_offset -8
	pushl_cfi %fs
	.cfi_restore_iret_fs_or_offset -12
	movw   $(SEGMENT_USER_DATA_RPL), %ax
	movw   %ax, %ds
	movw   %ax, %es
	movw   $(SEGMENT_KERNEL_FSBASE), %ax
	movw   %ax, %fs
	pushl_cfi_r %ebp  /* Arg #5 */
	pushl_cfi_r %edi  /* Arg #4 */
	pushl_cfi_r %esi  /* Arg #3 */
	pushl_cfi_r %edx  /* Arg #2 */
	pushl_cfi_r %ecx  /* Arg #1 */
	pushl_cfi_r %ebx  /* Arg #0 */
	EXTERN(sys_mmap2)
	call   sys_mmap2
	popl_cfi_r %ebx
	popl_cfi_r %ecx
	popl_cfi_r %edx
	addl   $(12), %esp
	.cfi_adjust_cfa_offset -12
	popl_cfi %fs
	.cfi_restore_iret_fs
	popl_cfi %es
	.cfi_restore_iret_es
	popl_cfi %ds
	.cfi_restore_iret_ds
	iret
	.cfi_endproc
END(__x86_asm32_int80_mmap2)

/* errno_t truncate64(char const *filename, uint64_t length) */
.section .text.x86.asm32_syscall_int80.truncate64
INTERN_WEAK_FUNCTION(__x86_asm32_int80_truncate64)
	.cfi_startproc simple
	.cfi_personality 0, x86_syscall_personality_asm32_int80
	.cfi_lsda 0, 0xc1
	.cfi_iret_signal_frame
	.cfi_def_cfa %esp, 0
	pushl_cfi %ds
	.cfi_restore_iret_ds_or_offset -4
	pushl_cfi %es
	.cfi_restore_iret_es_or_offset -8
	pushl_cfi %fs
	.cfi_restore_iret_fs_or_offset -12
	movw   $(SEGMENT_USER_DATA_RPL), %ax
	movw   %ax, %ds
	movw   %ax, %es
	movw   $(SEGMENT_KERNEL_FSBASE), %ax
	movw   %ax, %fs
	pushl_cfi_r %edx  /* Arg #2 */
	pushl_cfi_r %ecx  /* Arg #1 */
	pushl_cfi_r %ebx  /* Arg #0 */
	EXTERN(sys_truncate64)
	call   sys_truncate64
	popl_cfi_r %ebx
	popl_cfi_r %ecx
	popl_cfi_r %edx
	popl_cfi %fs
	.cfi_restore_iret_fs
	popl_cfi %es
	.cfi_restore_iret_es
	popl_cfi %ds
	.cfi_restore_iret_ds
	iret
	.cfi_endproc
END(__x86_asm32_int80_truncate64)

/* errno_t ftruncate64(fd_t fd, uint64_t length) */
.section .text.x86.asm32_syscall_int80.ftruncate64
INTERN_WEAK_FUNCTION(__x86_asm32_int80_ftruncate64)
	.cfi_startproc simple
	.cfi_personality 0, x86_syscall_personality_asm32_int80
	.cfi_lsda 0, 0xc2
	.cfi_iret_signal_frame
	.cfi_def_cfa %esp, 0
	pushl_cfi %ds
	.cfi_restore_iret_ds_or_offset -4
	pushl_cfi %es
	.cfi_restore_iret_es_or_offset -8
	pushl_cfi %fs
	.cfi_restore_iret_fs_or_offset -12
	movw   $(SEGMENT_USER_DATA_RPL), %ax
	movw   %ax, %ds
	movw   %ax, %es
	movw   $(SEGMENT_KERNEL_FSBASE), %ax
	movw   %ax, %fs
	pushl_cfi_r %edx  /* Arg #2 */
	pushl_cfi_r %ecx  /* Arg #1 */
	pushl_cfi_r %ebx  /* Arg #0 */
	EXTERN(sys_ftruncate64)
	call   sys_ftruncate64
	popl_cfi_r %ebx
	popl_cfi_r %ecx
	popl_cfi_r %edx
	popl_cfi %fs
	.cfi_restore_iret_fs
	popl_cfi %es
	.cfi_restore_iret_es
	popl_cfi %ds
	.cfi_restore_iret_ds
	iret
	.cfi_endproc
END(__x86_asm32_int80_ftruncate64)

/* errno_t stat64(char const *filename, struct linux_statx32_64 *statbuf) */
.section .text.x86.asm32_syscall_int80.stat64
INTERN_WEAK_FUNCTION(__x86_asm32_int80_stat64)
	.cfi_startproc simple
	.cfi_personality 0, x86_syscall_personality_asm32_int80
	.cfi_lsda 0, 0xc3
	.cfi_iret_signal_frame
	.cfi_def_cfa %esp, 0
	pushl_cfi %ds
	.cfi_restore_iret_ds_or_offset -4
	pushl_cfi %es
	.cfi_restore_iret_es_or_offset -8
	pushl_cfi %fs
	.cfi_restore_iret_fs_or_offset -12
	movw   $(SEGMENT_USER_DATA_RPL), %ax
	movw   %ax, %ds
	movw   %ax, %es
	movw   $(SEGMENT_KERNEL_FSBASE), %ax
	movw   %ax, %fs
	pushl_cfi_r %edx
	pushl_cfi_r %ecx  /* Arg #1 */
	pushl_cfi_r %ebx  /* Arg #0 */
	EXTERN(sys_stat64)
	call   sys_stat64
	popl_cfi_r %ebx
	popl_cfi_r %ecx
	popl_cfi_r %edx
	popl_cfi %fs
	.cfi_restore_iret_fs
	popl_cfi %es
	.cfi_restore_iret_es
	popl_cfi %ds
	.cfi_restore_iret_ds
	iret
	.cfi_endproc
END(__x86_asm32_int80_stat64)

/* errno_t lstat64(char const *filename, struct linux_statx32_64 *statbuf) */
.section .text.x86.asm32_syscall_int80.lstat64
INTERN_WEAK_FUNCTION(__x86_asm32_int80_lstat64)
	.cfi_startproc simple
	.cfi_personality 0, x86_syscall_personality_asm32_int80
	.cfi_lsda 0, 0xc4
	.cfi_iret_signal_frame
	.cfi_def_cfa %esp, 0
	pushl_cfi %ds
	.cfi_restore_iret_ds_or_offset -4
	pushl_cfi %es
	.cfi_restore_iret_es_or_offset -8
	pushl_cfi %fs
	.cfi_restore_iret_fs_or_offset -12
	movw   $(SEGMENT_USER_DATA_RPL), %ax
	movw   %ax, %ds
	movw   %ax, %es
	movw   $(SEGMENT_KERNEL_FSBASE), %ax
	movw   %ax, %fs
	pushl_cfi_r %edx
	pushl_cfi_r %ecx  /* Arg #1 */
	pushl_cfi_r %ebx  /* Arg #0 */
	EXTERN(sys_lstat64)
	call   sys_lstat64
	popl_cfi_r %ebx
	popl_cfi_r %ecx
	popl_cfi_r %edx
	popl_cfi %fs
	.cfi_restore_iret_fs
	popl_cfi %es
	.cfi_restore_iret_es
	popl_cfi %ds
	.cfi_restore_iret_ds
	iret
	.cfi_endproc
END(__x86_asm32_int80_lstat64)

/* errno_t fstat64(fd_t fd, struct linux_statx32_64 *statbuf) */
.section .text.x86.asm32_syscall_int80.fstat64
INTERN_WEAK_FUNCTION(__x86_asm32_int80_fstat64)
	.cfi_startproc simple
	.cfi_personality 0, x86_syscall_personality_asm32_int80
	.cfi_lsda 0, 0xc5
	.cfi_iret_signal_frame
	.cfi_def_cfa %esp, 0
	pushl_cfi %ds
	.cfi_restore_iret_ds_or_offset -4
	pushl_cfi %es
	.cfi_restore_iret_es_or_offset -8
	pushl_cfi %fs
	.cfi_restore_iret_fs_or_offset -12
	movw   $(SEGMENT_USER_DATA_RPL), %ax
	movw   %ax, %ds
	movw   %ax, %es
	movw   $(SEGMENT_KERNEL_FSBASE), %ax
	movw   %ax, %fs
	pushl_cfi_r %edx
	pushl_cfi_r %ecx  /* Arg #1 */
	pushl_cfi_r %ebx  /* Arg #0 */
	EXTERN(sys_fstat64)
	call   sys_fstat64
	popl_cfi_r %ebx
	popl_cfi_r %ecx
	popl_cfi_r %edx
	popl_cfi %fs
	.cfi_restore_iret_fs
	popl_cfi %es
	.cfi_restore_iret_es
	popl_cfi %ds
	.cfi_restore_iret_ds
	iret
	.cfi_endproc
END(__x86_asm32_int80_fstat64)

/* errno_t lchown32(char const *filename, uint32_t owner, uint32_t group) */
.section .text.x86.asm32_syscall_int80.lchown32
INTERN_WEAK_FUNCTION(__x86_asm32_int80_lchown32)
	.cfi_startproc simple
	.cfi_personality 0, x86_syscall_personality_asm32_int80
	.cfi_lsda 0, 0xc6
	.cfi_iret_signal_frame
	.cfi_def_cfa %esp, 0
	pushl_cfi %ds
	.cfi_restore_iret_ds_or_offset -4
	pushl_cfi %es
	.cfi_restore_iret_es_or_offset -8
	pushl_cfi %fs
	.cfi_restore_iret_fs_or_offset -12
	movw   $(SEGMENT_USER_DATA_RPL), %ax
	movw   %ax, %ds
	movw   %ax, %es
	movw   $(SEGMENT_KERNEL_FSBASE), %ax
	movw   %ax, %fs
	pushl_cfi_r %edx  /* Arg #2 */
	pushl_cfi_r %ecx  /* Arg #1 */
	pushl_cfi_r %ebx  /* Arg #0 */
	EXTERN(sys_lchown32)
	call   sys_lchown32
	popl_cfi_r %ebx
	popl_cfi_r %ecx
	popl_cfi_r %edx
	popl_cfi %fs
	.cfi_restore_iret_fs
	popl_cfi %es
	.cfi_restore_iret_es
	popl_cfi %ds
	.cfi_restore_iret_ds
	iret
	.cfi_endproc
END(__x86_asm32_int80_lchown32)

/* >> getuid(2)
 * @return: * : The UID of the calling thread (this is the so-called ~real~ UID) */
/* uint32_t getuid32(void) */
.section .text.x86.asm32_syscall_int80.getuid32
INTERN_WEAK_FUNCTION(__x86_asm32_int80_getuid32)
	.cfi_startproc simple
	.cfi_personality 0, x86_syscall_personality_asm32_int80
	.cfi_lsda 0, 0xc7
	.cfi_iret_signal_frame
	.cfi_def_cfa %esp, 0
	pushl_cfi %ds
	.cfi_restore_iret_ds_or_offset -4
	pushl_cfi %es
	.cfi_restore_iret_es_or_offset -8
	pushl_cfi %fs
	.cfi_restore_iret_fs_or_offset -12
	movw   $(SEGMENT_USER_DATA_RPL), %ax
	movw   %ax, %ds
	movw   %ax, %es
	movw   $(SEGMENT_KERNEL_FSBASE), %ax
	movw   %ax, %fs
	pushl_cfi_r %ecx
	pushl_cfi_r %edx
	EXTERN(sys_getuid32)
	call   sys_getuid32
	popl_cfi_r %edx
	popl_cfi_r %ecx
	popl_cfi %fs
	.cfi_restore_iret_fs
	popl_cfi %es
	.cfi_restore_iret_es
	popl_cfi %ds
	.cfi_restore_iret_ds
	iret
	.cfi_endproc
END(__x86_asm32_int80_getuid32)

/* >> getgid(2)
 * @return: * : The GID of the calling thread (this is the so-called ~real~ GID) */
/* uint32_t getgid32(void) */
.section .text.x86.asm32_syscall_int80.getgid32
INTERN_WEAK_FUNCTION(__x86_asm32_int80_getgid32)
	.cfi_startproc simple
	.cfi_personality 0, x86_syscall_personality_asm32_int80
	.cfi_lsda 0, 0xc8
	.cfi_iret_signal_frame
	.cfi_def_cfa %esp, 0
	pushl_cfi %ds
	.cfi_restore_iret_ds_or_offset -4
	pushl_cfi %es
	.cfi_restore_iret_es_or_offset -8
	pushl_cfi %fs
	.cfi_restore_iret_fs_or_offset -12
	movw   $(SEGMENT_USER_DATA_RPL), %ax
	movw   %ax, %ds
	movw   %ax, %es
	movw   $(SEGMENT_KERNEL_FSBASE), %ax
	movw   %ax, %fs
	pushl_cfi_r %ecx
	pushl_cfi_r %edx
	EXTERN(sys_getgid32)
	call   sys_getgid32
	popl_cfi_r %edx
	popl_cfi_r %ecx
	popl_cfi %fs
	.cfi_restore_iret_fs
	popl_cfi %es
	.cfi_restore_iret_es
	popl_cfi %ds
	.cfi_restore_iret_ds
	iret
	.cfi_endproc
END(__x86_asm32_int80_getgid32)

/* >> geteuid(2)
 * @return: * : The   effective  UID  of  the  calling  thread.
 *              This is the one used for most permission checks */
/* uint32_t geteuid32(void) */
.section .text.x86.asm32_syscall_int80.geteuid32
INTERN_WEAK_FUNCTION(__x86_asm32_int80_geteuid32)
	.cfi_startproc simple
	.cfi_personality 0, x86_syscall_personality_asm32_int80
	.cfi_lsda 0, 0xc9
	.cfi_iret_signal_frame
	.cfi_def_cfa %esp, 0
	pushl_cfi %ds
	.cfi_restore_iret_ds_or_offset -4
	pushl_cfi %es
	.cfi_restore_iret_es_or_offset -8
	pushl_cfi %fs
	.cfi_restore_iret_fs_or_offset -12
	movw   $(SEGMENT_USER_DATA_RPL), %ax
	movw   %ax, %ds
	movw   %ax, %es
	movw   $(SEGMENT_KERNEL_FSBASE), %ax
	movw   %ax, %fs
	pushl_cfi_r %ecx
	pushl_cfi_r %edx
	EXTERN(sys_geteuid32)
	call   sys_geteuid32
	popl_cfi_r %edx
	popl_cfi_r %ecx
	popl_cfi %fs
	.cfi_restore_iret_fs
	popl_cfi %es
	.cfi_restore_iret_es
	popl_cfi %ds
	.cfi_restore_iret_ds
	iret
	.cfi_endproc
END(__x86_asm32_int80_geteuid32)

/* >> getegid(2)
 * @return: * : The   effective  GID  of  the  calling  thread.
 *              This is the one used for most permission checks */
/* uint32_t getegid32(void) */
.section .text.x86.asm32_syscall_int80.getegid32
INTERN_WEAK_FUNCTION(__x86_asm32_int80_getegid32)
	.cfi_startproc simple
	.cfi_personality 0, x86_syscall_personality_asm32_int80
	.cfi_lsda 0, 0xca
	.cfi_iret_signal_frame
	.cfi_def_cfa %esp, 0
	pushl_cfi %ds
	.cfi_restore_iret_ds_or_offset -4
	pushl_cfi %es
	.cfi_restore_iret_es_or_offset -8
	pushl_cfi %fs
	.cfi_restore_iret_fs_or_offset -12
	movw   $(SEGMENT_USER_DATA_RPL), %ax
	movw   %ax, %ds
	movw   %ax, %es
	movw   $(SEGMENT_KERNEL_FSBASE), %ax
	movw   %ax, %fs
	pushl_cfi_r %ecx
	pushl_cfi_r %edx
	EXTERN(sys_getegid32)
	call   sys_getegid32
	popl_cfi_r %edx
	popl_cfi_r %ecx
	popl_cfi %fs
	.cfi_restore_iret_fs
	popl_cfi %es
	.cfi_restore_iret_es
	popl_cfi %ds
	.cfi_restore_iret_ds
	iret
	.cfi_endproc
END(__x86_asm32_int80_getegid32)

/* >> setreuid(2)
 * Set the real and effective UID of the calling thread.
 * @return: 0 : Success
 * @throw: E_INSUFFICIENT_RIGHTS:CAP_SETUID: [...] */
/* errno_t setreuid32(uint32_t ruid, uint32_t euid) */
.section .text.x86.asm32_syscall_int80.setreuid32
INTERN_WEAK_FUNCTION(__x86_asm32_int80_setreuid32)
	.cfi_startproc simple
	.cfi_personality 0, x86_syscall_personality_asm32_int80
	.cfi_lsda 0, 0xcb
	.cfi_iret_signal_frame
	.cfi_def_cfa %esp, 0
	pushl_cfi %ds
	.cfi_restore_iret_ds_or_offset -4
	pushl_cfi %es
	.cfi_restore_iret_es_or_offset -8
	pushl_cfi %fs
	.cfi_restore_iret_fs_or_offset -12
	movw   $(SEGMENT_USER_DATA_RPL), %ax
	movw   %ax, %ds
	movw   %ax, %es
	movw   $(SEGMENT_KERNEL_FSBASE), %ax
	movw   %ax, %fs
	pushl_cfi_r %edx
	pushl_cfi_r %ecx  /* Arg #1 */
	pushl_cfi_r %ebx  /* Arg #0 */
	EXTERN(sys_setreuid32)
	call   sys_setreuid32
	popl_cfi_r %ebx
	popl_cfi_r %ecx
	popl_cfi_r %edx
	popl_cfi %fs
	.cfi_restore_iret_fs
	popl_cfi %es
	.cfi_restore_iret_es
	popl_cfi %ds
	.cfi_restore_iret_ds
	iret
	.cfi_endproc
END(__x86_asm32_int80_setreuid32)

/* >> setregid(2)
 * Set the real and effective GID of the calling thread.
 * @return: 0 : Success
 * @throw: E_INSUFFICIENT_RIGHTS:CAP_SETGID: [...] */
/* errno_t setregid32(uint32_t rgid, uint32_t egid) */
.section .text.x86.asm32_syscall_int80.setregid32
INTERN_WEAK_FUNCTION(__x86_asm32_int80_setregid32)
	.cfi_startproc simple
	.cfi_personality 0, x86_syscall_personality_asm32_int80
	.cfi_lsda 0, 0xcc
	.cfi_iret_signal_frame
	.cfi_def_cfa %esp, 0
	pushl_cfi %ds
	.cfi_restore_iret_ds_or_offset -4
	pushl_cfi %es
	.cfi_restore_iret_es_or_offset -8
	pushl_cfi %fs
	.cfi_restore_iret_fs_or_offset -12
	movw   $(SEGMENT_USER_DATA_RPL), %ax
	movw   %ax, %ds
	movw   %ax, %es
	movw   $(SEGMENT_KERNEL_FSBASE), %ax
	movw   %ax, %fs
	pushl_cfi_r %edx
	pushl_cfi_r %ecx  /* Arg #1 */
	pushl_cfi_r %ebx  /* Arg #0 */
	EXTERN(sys_setregid32)
	call   sys_setregid32
	popl_cfi_r %ebx
	popl_cfi_r %ecx
	popl_cfi_r %edx
	popl_cfi %fs
	.cfi_restore_iret_fs
	popl_cfi %es
	.cfi_restore_iret_es
	popl_cfi %ds
	.cfi_restore_iret_ds
	iret
	.cfi_endproc
END(__x86_asm32_int80_setregid32)

/* @return: * :     [count == 0] The required number of groups
 * @return: * :     [count != 0] The number of groups that were actually returned
 * @throw: -EINVAL: [count != 0] There are more than `count' groups (NOTE: No exception is thrown for this case!) */
/* ssize_t getgroups32(size_t count, uint32_t[] list) */
.section .text.x86.asm32_syscall_int80.getgroups32
INTERN_WEAK_FUNCTION(__x86_asm32_int80_getgroups32)
	.cfi_startproc simple
	.cfi_personality 0, x86_syscall_personality_asm32_int80
	.cfi_lsda 0, 0xcd
	.cfi_iret_signal_frame
	.cfi_def_cfa %esp, 0
	pushl_cfi %ds
	.cfi_restore_iret_ds_or_offset -4
	pushl_cfi %es
	.cfi_restore_iret_es_or_offset -8
	pushl_cfi %fs
	.cfi_restore_iret_fs_or_offset -12
	movw   $(SEGMENT_USER_DATA_RPL), %ax
	movw   %ax, %ds
	movw   %ax, %es
	movw   $(SEGMENT_KERNEL_FSBASE), %ax
	movw   %ax, %fs
	pushl_cfi_r %edx
	pushl_cfi_r %ecx  /* Arg #1 */
	pushl_cfi_r %ebx  /* Arg #0 */
	EXTERN(sys_getgroups32)
	call   sys_getgroups32
	popl_cfi_r %ebx
	popl_cfi_r %ecx
	popl_cfi_r %edx
	popl_cfi %fs
	.cfi_restore_iret_fs
	popl_cfi %es
	.cfi_restore_iret_es
	popl_cfi %ds
	.cfi_restore_iret_ds
	iret
	.cfi_endproc
END(__x86_asm32_int80_getgroups32)

/* errno_t setgroups32(size_t count, uint32_t const *groups) */
.section .text.x86.asm32_syscall_int80.setgroups32
INTERN_WEAK_FUNCTION(__x86_asm32_int80_setgroups32)
	.cfi_startproc simple
	.cfi_personality 0, x86_syscall_personality_asm32_int80
	.cfi_lsda 0, 0xce
	.cfi_iret_signal_frame
	.cfi_def_cfa %esp, 0
	pushl_cfi %ds
	.cfi_restore_iret_ds_or_offset -4
	pushl_cfi %es
	.cfi_restore_iret_es_or_offset -8
	pushl_cfi %fs
	.cfi_restore_iret_fs_or_offset -12
	movw   $(SEGMENT_USER_DATA_RPL), %ax
	movw   %ax, %ds
	movw   %ax, %es
	movw   $(SEGMENT_KERNEL_FSBASE), %ax
	movw   %ax, %fs
	pushl_cfi_r %edx
	pushl_cfi_r %ecx  /* Arg #1 */
	pushl_cfi_r %ebx  /* Arg #0 */
	EXTERN(sys_setgroups32)
	call   sys_setgroups32
	popl_cfi_r %ebx
	popl_cfi_r %ecx
	popl_cfi_r %edx
	popl_cfi %fs
	.cfi_restore_iret_fs
	popl_cfi %es
	.cfi_restore_iret_es
	popl_cfi %ds
	.cfi_restore_iret_ds
	iret
	.cfi_endproc
END(__x86_asm32_int80_setgroups32)

/* errno_t fchown32(fd_t fd, uint32_t owner, uint32_t group) */
.section .text.x86.asm32_syscall_int80.fchown32
INTERN_WEAK_FUNCTION(__x86_asm32_int80_fchown32)
	.cfi_startproc simple
	.cfi_personality 0, x86_syscall_personality_asm32_int80
	.cfi_lsda 0, 0xcf
	.cfi_iret_signal_frame
	.cfi_def_cfa %esp, 0
	pushl_cfi %ds
	.cfi_restore_iret_ds_or_offset -4
	pushl_cfi %es
	.cfi_restore_iret_es_or_offset -8
	pushl_cfi %fs
	.cfi_restore_iret_fs_or_offset -12
	movw   $(SEGMENT_USER_DATA_RPL), %ax
	movw   %ax, %ds
	movw   %ax, %es
	movw   $(SEGMENT_KERNEL_FSBASE), %ax
	movw   %ax, %fs
	pushl_cfi_r %edx  /* Arg #2 */
	pushl_cfi_r %ecx  /* Arg #1 */
	pushl_cfi_r %ebx  /* Arg #0 */
	EXTERN(sys_fchown32)
	call   sys_fchown32
	popl_cfi_r %ebx
	popl_cfi_r %ecx
	popl_cfi_r %edx
	popl_cfi %fs
	.cfi_restore_iret_fs
	popl_cfi %es
	.cfi_restore_iret_es
	popl_cfi %ds
	.cfi_restore_iret_ds
	iret
	.cfi_endproc
END(__x86_asm32_int80_fchown32)

/* >> setresuid(2)
 * @return: 0 : Success
 * Set the real, effective, and saved UID of the calling thread.
 * @throw: E_INSUFFICIENT_RIGHTS:CAP_SETUID: [...] */
/* errno_t setresuid32(uint32_t ruid, uint32_t euid, uint32_t suid) */
.section .text.x86.asm32_syscall_int80.setresuid32
INTERN_WEAK_FUNCTION(__x86_asm32_int80_setresuid32)
	.cfi_startproc simple
	.cfi_personality 0, x86_syscall_personality_asm32_int80
	.cfi_lsda 0, 0xd0
	.cfi_iret_signal_frame
	.cfi_def_cfa %esp, 0
	pushl_cfi %ds
	.cfi_restore_iret_ds_or_offset -4
	pushl_cfi %es
	.cfi_restore_iret_es_or_offset -8
	pushl_cfi %fs
	.cfi_restore_iret_fs_or_offset -12
	movw   $(SEGMENT_USER_DATA_RPL), %ax
	movw   %ax, %ds
	movw   %ax, %es
	movw   $(SEGMENT_KERNEL_FSBASE), %ax
	movw   %ax, %fs
	pushl_cfi_r %edx  /* Arg #2 */
	pushl_cfi_r %ecx  /* Arg #1 */
	pushl_cfi_r %ebx  /* Arg #0 */
	EXTERN(sys_setresuid32)
	call   sys_setresuid32
	popl_cfi_r %ebx
	popl_cfi_r %ecx
	popl_cfi_r %edx
	popl_cfi %fs
	.cfi_restore_iret_fs
	popl_cfi %es
	.cfi_restore_iret_es
	popl_cfi %ds
	.cfi_restore_iret_ds
	iret
	.cfi_endproc
END(__x86_asm32_int80_setresuid32)

/* >> getresuid(2)
 * Get the real, effective, and saved UID of the calling thread.
 * @return: 0 : Success */
/* errno_t getresuid32(uint32_t *ruid, uint32_t *euid, uint32_t *suid) */
.section .text.x86.asm32_syscall_int80.getresuid32
INTERN_WEAK_FUNCTION(__x86_asm32_int80_getresuid32)
	.cfi_startproc simple
	.cfi_personality 0, x86_syscall_personality_asm32_int80
	.cfi_lsda 0, 0xd1
	.cfi_iret_signal_frame
	.cfi_def_cfa %esp, 0
	pushl_cfi %ds
	.cfi_restore_iret_ds_or_offset -4
	pushl_cfi %es
	.cfi_restore_iret_es_or_offset -8
	pushl_cfi %fs
	.cfi_restore_iret_fs_or_offset -12
	movw   $(SEGMENT_USER_DATA_RPL), %ax
	movw   %ax, %ds
	movw   %ax, %es
	movw   $(SEGMENT_KERNEL_FSBASE), %ax
	movw   %ax, %fs
	pushl_cfi_r %edx  /* Arg #2 */
	pushl_cfi_r %ecx  /* Arg #1 */
	pushl_cfi_r %ebx  /* Arg #0 */
	EXTERN(sys_getresuid32)
	call   sys_getresuid32
	popl_cfi_r %ebx
	popl_cfi_r %ecx
	popl_cfi_r %edx
	popl_cfi %fs
	.cfi_restore_iret_fs
	popl_cfi %es
	.cfi_restore_iret_es
	popl_cfi %ds
	.cfi_restore_iret_ds
	iret
	.cfi_endproc
END(__x86_asm32_int80_getresuid32)

/* >> setresgid(2)
 * Set the real, effective, and saved GID of the calling thread.
 * @return: 0 : Success
 * @throw: E_INSUFFICIENT_RIGHTS:CAP_SETGID: [...] */
/* errno_t setresgid32(uint32_t rgid, uint32_t egid, uint32_t sgid) */
.section .text.x86.asm32_syscall_int80.setresgid32
INTERN_WEAK_FUNCTION(__x86_asm32_int80_setresgid32)
	.cfi_startproc simple
	.cfi_personality 0, x86_syscall_personality_asm32_int80
	.cfi_lsda 0, 0xd2
	.cfi_iret_signal_frame
	.cfi_def_cfa %esp, 0
	pushl_cfi %ds
	.cfi_restore_iret_ds_or_offset -4
	pushl_cfi %es
	.cfi_restore_iret_es_or_offset -8
	pushl_cfi %fs
	.cfi_restore_iret_fs_or_offset -12
	movw   $(SEGMENT_USER_DATA_RPL), %ax
	movw   %ax, %ds
	movw   %ax, %es
	movw   $(SEGMENT_KERNEL_FSBASE), %ax
	movw   %ax, %fs
	pushl_cfi_r %edx  /* Arg #2 */
	pushl_cfi_r %ecx  /* Arg #1 */
	pushl_cfi_r %ebx  /* Arg #0 */
	EXTERN(sys_setresgid32)
	call   sys_setresgid32
	popl_cfi_r %ebx
	popl_cfi_r %ecx
	popl_cfi_r %edx
	popl_cfi %fs
	.cfi_restore_iret_fs
	popl_cfi %es
	.cfi_restore_iret_es
	popl_cfi %ds
	.cfi_restore_iret_ds
	iret
	.cfi_endproc
END(__x86_asm32_int80_setresgid32)

/* >> getresgid(2)
 * Get the real, effective, and saved GID of the calling thread.
 * @return: 0 : Success */
/* errno_t getresgid32(uint32_t *rgid, uint32_t *egid, uint32_t *sgid) */
.section .text.x86.asm32_syscall_int80.getresgid32
INTERN_WEAK_FUNCTION(__x86_asm32_int80_getresgid32)
	.cfi_startproc simple
	.cfi_personality 0, x86_syscall_personality_asm32_int80
	.cfi_lsda 0, 0xd3
	.cfi_iret_signal_frame
	.cfi_def_cfa %esp, 0
	pushl_cfi %ds
	.cfi_restore_iret_ds_or_offset -4
	pushl_cfi %es
	.cfi_restore_iret_es_or_offset -8
	pushl_cfi %fs
	.cfi_restore_iret_fs_or_offset -12
	movw   $(SEGMENT_USER_DATA_RPL), %ax
	movw   %ax, %ds
	movw   %ax, %es
	movw   $(SEGMENT_KERNEL_FSBASE), %ax
	movw   %ax, %fs
	pushl_cfi_r %edx  /* Arg #2 */
	pushl_cfi_r %ecx  /* Arg #1 */
	pushl_cfi_r %ebx  /* Arg #0 */
	EXTERN(sys_getresgid32)
	call   sys_getresgid32
	popl_cfi_r %ebx
	popl_cfi_r %ecx
	popl_cfi_r %edx
	popl_cfi %fs
	.cfi_restore_iret_fs
	popl_cfi %es
	.cfi_restore_iret_es
	popl_cfi %ds
	.cfi_restore_iret_ds
	iret
	.cfi_endproc
END(__x86_asm32_int80_getresgid32)

/* errno_t chown32(char const *filename, uint32_t owner, uint32_t group) */
.section .text.x86.asm32_syscall_int80.chown32
INTERN_WEAK_FUNCTION(__x86_asm32_int80_chown32)
	.cfi_startproc simple
	.cfi_personality 0, x86_syscall_personality_asm32_int80
	.cfi_lsda 0, 0xd4
	.cfi_iret_signal_frame
	.cfi_def_cfa %esp, 0
	pushl_cfi %ds
	.cfi_restore_iret_ds_or_offset -4
	pushl_cfi %es
	.cfi_restore_iret_es_or_offset -8
	pushl_cfi %fs
	.cfi_restore_iret_fs_or_offset -12
	movw   $(SEGMENT_USER_DATA_RPL), %ax
	movw   %ax, %ds
	movw   %ax, %es
	movw   $(SEGMENT_KERNEL_FSBASE), %ax
	movw   %ax, %fs
	pushl_cfi_r %edx  /* Arg #2 */
	pushl_cfi_r %ecx  /* Arg #1 */
	pushl_cfi_r %ebx  /* Arg #0 */
	EXTERN(sys_chown32)
	call   sys_chown32
	popl_cfi_r %ebx
	popl_cfi_r %ecx
	popl_cfi_r %edx
	popl_cfi %fs
	.cfi_restore_iret_fs
	popl_cfi %es
	.cfi_restore_iret_es
	popl_cfi %ds
	.cfi_restore_iret_ds
	iret
	.cfi_endproc
END(__x86_asm32_int80_chown32)

/* >> setuid(2)
 * Set the UID of the calling thread (this is the so-called ~real~ UID)
 * @return: 0 : Success
 * @throw: E_INSUFFICIENT_RIGHTS:CAP_SETUID: [...] */
/* errno_t setuid32(uint32_t uid) */
.section .text.x86.asm32_syscall_int80.setuid32
INTERN_WEAK_FUNCTION(__x86_asm32_int80_setuid32)
	.cfi_startproc simple
	.cfi_personality 0, x86_syscall_personality_asm32_int80
	.cfi_lsda 0, 0xd5
	.cfi_iret_signal_frame
	.cfi_def_cfa %esp, 0
	pushl_cfi %ds
	.cfi_restore_iret_ds_or_offset -4
	pushl_cfi %es
	.cfi_restore_iret_es_or_offset -8
	pushl_cfi %fs
	.cfi_restore_iret_fs_or_offset -12
	movw   $(SEGMENT_USER_DATA_RPL), %ax
	movw   %ax, %ds
	movw   %ax, %es
	movw   $(SEGMENT_KERNEL_FSBASE), %ax
	movw   %ax, %fs
	pushl_cfi_r %ecx
	pushl_cfi_r %edx
	pushl_cfi_r %ebx  /* Arg #0 */
	EXTERN(sys_setuid32)
	call   sys_setuid32
	popl_cfi_r %ebx
	popl_cfi_r %edx
	popl_cfi_r %ecx
	popl_cfi %fs
	.cfi_restore_iret_fs
	popl_cfi %es
	.cfi_restore_iret_es
	popl_cfi %ds
	.cfi_restore_iret_ds
	iret
	.cfi_endproc
END(__x86_asm32_int80_setuid32)

/* >> setgid(2)
 * Set the GID of the calling thread (this is the so-called ~real~ GID)
 * @return: 0 : Success
 * @throw: E_INSUFFICIENT_RIGHTS:CAP_SETGID: [...] */
/* errno_t setgid32(uint32_t gid) */
.section .text.x86.asm32_syscall_int80.setgid32
INTERN_WEAK_FUNCTION(__x86_asm32_int80_setgid32)
	.cfi_startproc simple
	.cfi_personality 0, x86_syscall_personality_asm32_int80
	.cfi_lsda 0, 0xd6
	.cfi_iret_signal_frame
	.cfi_def_cfa %esp, 0
	pushl_cfi %ds
	.cfi_restore_iret_ds_or_offset -4
	pushl_cfi %es
	.cfi_restore_iret_es_or_offset -8
	pushl_cfi %fs
	.cfi_restore_iret_fs_or_offset -12
	movw   $(SEGMENT_USER_DATA_RPL), %ax
	movw   %ax, %ds
	movw   %ax, %es
	movw   $(SEGMENT_KERNEL_FSBASE), %ax
	movw   %ax, %fs
	pushl_cfi_r %ecx
	pushl_cfi_r %edx
	pushl_cfi_r %ebx  /* Arg #0 */
	EXTERN(sys_setgid32)
	call   sys_setgid32
	popl_cfi_r %ebx
	popl_cfi_r %edx
	popl_cfi_r %ecx
	popl_cfi %fs
	.cfi_restore_iret_fs
	popl_cfi %es
	.cfi_restore_iret_es
	popl_cfi %ds
	.cfi_restore_iret_ds
	iret
	.cfi_endproc
END(__x86_asm32_int80_setgid32)

/* >> setfsuid(2)
 * Set the  user ID  for the  cred-context (s.a.  `CLONE_CRED') of  the
 * calling thread. The calling thread needs the `CAP_SETUID' privilege.
 * @return: 0:  Success.
 * @throw: E_INSUFFICIENT_RIGHTS:CAP_SETUID: [...] */
/* errno_t setfsuid32(uint32_t uid) */
.section .text.x86.asm32_syscall_int80.setfsuid32
INTERN_WEAK_FUNCTION(__x86_asm32_int80_setfsuid32)
	.cfi_startproc simple
	.cfi_personality 0, x86_syscall_personality_asm32_int80
	.cfi_lsda 0, 0xd7
	.cfi_iret_signal_frame
	.cfi_def_cfa %esp, 0
	pushl_cfi %ds
	.cfi_restore_iret_ds_or_offset -4
	pushl_cfi %es
	.cfi_restore_iret_es_or_offset -8
	pushl_cfi %fs
	.cfi_restore_iret_fs_or_offset -12
	movw   $(SEGMENT_USER_DATA_RPL), %ax
	movw   %ax, %ds
	movw   %ax, %es
	movw   $(SEGMENT_KERNEL_FSBASE), %ax
	movw   %ax, %fs
	pushl_cfi_r %ecx
	pushl_cfi_r %edx
	pushl_cfi_r %ebx  /* Arg #0 */
	EXTERN(sys_setfsuid32)
	call   sys_setfsuid32
	popl_cfi_r %ebx
	popl_cfi_r %edx
	popl_cfi_r %ecx
	popl_cfi %fs
	.cfi_restore_iret_fs
	popl_cfi %es
	.cfi_restore_iret_es
	popl_cfi %ds
	.cfi_restore_iret_ds
	iret
	.cfi_endproc
END(__x86_asm32_int80_setfsuid32)

/* >> setfsgid(2)
 * Set the group  ID for  the cred-context (s.a.  `CLONE_CRED') of  the
 * calling thread. The calling thread needs the `CAP_SETGID' privilege.
 * @return: 0:  Success.
 * @throw: E_INSUFFICIENT_RIGHTS:CAP_SETGID: [...] */
/* errno_t setfsgid32(uint32_t gid) */
.section .text.x86.asm32_syscall_int80.setfsgid32
INTERN_WEAK_FUNCTION(__x86_asm32_int80_setfsgid32)
	.cfi_startproc simple
	.cfi_personality 0, x86_syscall_personality_asm32_int80
	.cfi_lsda 0, 0xd8
	.cfi_iret_signal_frame
	.cfi_def_cfa %esp, 0
	pushl_cfi %ds
	.cfi_restore_iret_ds_or_offset -4
	pushl_cfi %es
	.cfi_restore_iret_es_or_offset -8
	pushl_cfi %fs
	.cfi_restore_iret_fs_or_offset -12
	movw   $(SEGMENT_USER_DATA_RPL), %ax
	movw   %ax, %ds
	movw   %ax, %es
	movw   $(SEGMENT_KERNEL_FSBASE), %ax
	movw   %ax, %fs
	pushl_cfi_r %ecx
	pushl_cfi_r %edx
	pushl_cfi_r %ebx  /* Arg #0 */
	EXTERN(sys_setfsgid32)
	call   sys_setfsgid32
	popl_cfi_r %ebx
	popl_cfi_r %edx
	popl_cfi_r %ecx
	popl_cfi %fs
	.cfi_restore_iret_fs
	popl_cfi %es
	.cfi_restore_iret_es
	popl_cfi %ds
	.cfi_restore_iret_ds
	iret
	.cfi_endproc
END(__x86_asm32_int80_setfsgid32)

/* errno_t pivot_root(int TODO_PROTOTYPE) */
.section .text.x86.asm32_syscall_int80.pivot_root
INTERN_WEAK_FUNCTION(__x86_asm32_int80_pivot_root)
	.cfi_startproc simple
	.cfi_personality 0, x86_syscall_personality_asm32_int80
	.cfi_lsda 0, 0xd9
	.cfi_iret_signal_frame
	.cfi_def_cfa %esp, 0
	pushl_cfi %ds
	.cfi_restore_iret_ds_or_offset -4
	pushl_cfi %es
	.cfi_restore_iret_es_or_offset -8
	pushl_cfi %fs
	.cfi_restore_iret_fs_or_offset -12
	movw   $(SEGMENT_USER_DATA_RPL), %ax
	movw   %ax, %ds
	movw   %ax, %es
	movw   $(SEGMENT_KERNEL_FSBASE), %ax
	movw   %ax, %fs
	pushl_cfi_r %ecx
	pushl_cfi_r %edx
	pushl_cfi_r %ebx  /* Arg #0 */
	EXTERN(sys_pivot_root)
	call   sys_pivot_root
	popl_cfi_r %ebx
	popl_cfi_r %edx
	popl_cfi_r %ecx
	popl_cfi %fs
	.cfi_restore_iret_fs
	popl_cfi %es
	.cfi_restore_iret_es
	popl_cfi %ds
	.cfi_restore_iret_ds
	iret
	.cfi_endproc
END(__x86_asm32_int80_pivot_root)

/* errno_t mincore(void *start, size_t len, uint8_t *vec) */
.section .text.x86.asm32_syscall_int80.mincore
INTERN_WEAK_FUNCTION(__x86_asm32_int80_mincore)
	.cfi_startproc simple
	.cfi_personality 0, x86_syscall_personality_asm32_int80
	.cfi_lsda 0, 0xda
	.cfi_iret_signal_frame
	.cfi_def_cfa %esp, 0
	pushl_cfi %ds
	.cfi_restore_iret_ds_or_offset -4
	pushl_cfi %es
	.cfi_restore_iret_es_or_offset -8
	pushl_cfi %fs
	.cfi_restore_iret_fs_or_offset -12
	movw   $(SEGMENT_USER_DATA_RPL), %ax
	movw   %ax, %ds
	movw   %ax, %es
	movw   $(SEGMENT_KERNEL_FSBASE), %ax
	movw   %ax, %fs
	pushl_cfi_r %edx  /* Arg #2 */
	pushl_cfi_r %ecx  /* Arg #1 */
	pushl_cfi_r %ebx  /* Arg #0 */
	EXTERN(sys_mincore)
	call   sys_mincore
	popl_cfi_r %ebx
	popl_cfi_r %ecx
	popl_cfi_r %edx
	popl_cfi %fs
	.cfi_restore_iret_fs
	popl_cfi %es
	.cfi_restore_iret_es
	popl_cfi %ds
	.cfi_restore_iret_ds
	iret
	.cfi_endproc
END(__x86_asm32_int80_mincore)

/* errno_t madvise(void *addr, size_t len, syscall_ulong_t advice) */
.section .text.x86.asm32_syscall_int80.madvise
INTERN_WEAK_FUNCTION(__x86_asm32_int80_madvise)
	.cfi_startproc simple
	.cfi_personality 0, x86_syscall_personality_asm32_int80
	.cfi_lsda 0, 0xdb
	.cfi_iret_signal_frame
	.cfi_def_cfa %esp, 0
	pushl_cfi %ds
	.cfi_restore_iret_ds_or_offset -4
	pushl_cfi %es
	.cfi_restore_iret_es_or_offset -8
	pushl_cfi %fs
	.cfi_restore_iret_fs_or_offset -12
	movw   $(SEGMENT_USER_DATA_RPL), %ax
	movw   %ax, %ds
	movw   %ax, %es
	movw   $(SEGMENT_KERNEL_FSBASE), %ax
	movw   %ax, %fs
	pushl_cfi_r %edx  /* Arg #2 */
	pushl_cfi_r %ecx  /* Arg #1 */
	pushl_cfi_r %ebx  /* Arg #0 */
	EXTERN(sys_madvise)
	call   sys_madvise
	popl_cfi_r %ebx
	popl_cfi_r %ecx
	popl_cfi_r %edx
	popl_cfi %fs
	.cfi_restore_iret_fs
	popl_cfi %es
	.cfi_restore_iret_es
	popl_cfi %ds
	.cfi_restore_iret_ds
	iret
	.cfi_endproc
END(__x86_asm32_int80_madvise)

/* @return: * : The actual number of read entries
 * @return: 0 : End-of-directory */
/* ssize_t getdents64(fd_t fd, struct linux_dirent64 *buf, size_t buflen) */
.section .text.x86.asm32_syscall_int80.getdents64
INTERN_WEAK_FUNCTION(__x86_asm32_int80_getdents64)
	.cfi_startproc simple
	.cfi_personality 0, x86_syscall_personality_asm32_int80
	.cfi_lsda 0, 0xdc
	.cfi_iret_signal_frame
	.cfi_def_cfa %esp, 0
	pushl_cfi %ds
	.cfi_restore_iret_ds_or_offset -4
	pushl_cfi %es
	.cfi_restore_iret_es_or_offset -8
	pushl_cfi %fs
	.cfi_restore_iret_fs_or_offset -12
	movw   $(SEGMENT_USER_DATA_RPL), %ax
	movw   %ax, %ds
	movw   %ax, %es
	movw   $(SEGMENT_KERNEL_FSBASE), %ax
	movw   %ax, %fs
	pushl_cfi_r %edx  /* Arg #2 */
	pushl_cfi_r %ecx  /* Arg #1 */
	pushl_cfi_r %ebx  /* Arg #0 */
	EXTERN(sys_getdents64)
	call   sys_getdents64
	popl_cfi_r %ebx
	popl_cfi_r %ecx
	popl_cfi_r %edx
	popl_cfi %fs
	.cfi_restore_iret_fs
	popl_cfi %es
	.cfi_restore_iret_es
	popl_cfi %ds
	.cfi_restore_iret_ds
	iret
	.cfi_endproc
END(__x86_asm32_int80_getdents64)

/* syscall_slong_t fcntl64(fd_t fd, fcntl_t command, void *arg) */
.section .text.x86.asm32_syscall_int80.fcntl64
INTERN_WEAK_FUNCTION(__x86_asm32_int80_fcntl64)
	.cfi_startproc simple
	.cfi_personality 0, x86_syscall_personality_asm32_int80
	.cfi_lsda 0, 0xdd
	.cfi_iret_signal_frame
	.cfi_def_cfa %esp, 0
	pushl_cfi %ds
	.cfi_restore_iret_ds_or_offset -4
	pushl_cfi %es
	.cfi_restore_iret_es_or_offset -8
	pushl_cfi %fs
	.cfi_restore_iret_fs_or_offset -12
	movw   $(SEGMENT_USER_DATA_RPL), %ax
	movw   %ax, %ds
	movw   %ax, %es
	movw   $(SEGMENT_KERNEL_FSBASE), %ax
	movw   %ax, %fs
	pushl_cfi_r %edx  /* Arg #2 */
	pushl_cfi_r %ecx  /* Arg #1 */
	pushl_cfi_r %ebx  /* Arg #0 */
	EXTERN(sys_fcntl64)
	call   sys_fcntl64
	popl_cfi_r %ebx
	popl_cfi_r %ecx
	popl_cfi_r %edx
	popl_cfi %fs
	.cfi_restore_iret_fs
	popl_cfi %es
	.cfi_restore_iret_es
	popl_cfi %ds
	.cfi_restore_iret_ds
	iret
	.cfi_endproc
END(__x86_asm32_int80_fcntl64)

/* pid_t gettid(void) */
.section .text.x86.asm32_syscall_int80.gettid
INTERN_WEAK_FUNCTION(__x86_asm32_int80_gettid)
	.cfi_startproc simple
	.cfi_personality 0, x86_syscall_personality_asm32_int80
	.cfi_lsda 0, 0xe0
	.cfi_iret_signal_frame
	.cfi_def_cfa %esp, 0
	pushl_cfi %ds
	.cfi_restore_iret_ds_or_offset -4
	pushl_cfi %es
	.cfi_restore_iret_es_or_offset -8
	pushl_cfi %fs
	.cfi_restore_iret_fs_or_offset -12
	movw   $(SEGMENT_USER_DATA_RPL), %ax
	movw   %ax, %ds
	movw   %ax, %es
	movw   $(SEGMENT_KERNEL_FSBASE), %ax
	movw   %ax, %fs
	pushl_cfi_r %ecx
	pushl_cfi_r %edx
	EXTERN(sys_gettid)
	call   sys_gettid
	popl_cfi_r %edx
	popl_cfi_r %ecx
	popl_cfi %fs
	.cfi_restore_iret_fs
	popl_cfi %es
	.cfi_restore_iret_es
	popl_cfi %ds
	.cfi_restore_iret_ds
	iret
	.cfi_endproc
END(__x86_asm32_int80_gettid)

/* ssize_t readahead(fd_t fd, uint64_t offset, size_t count) */
.section .text.x86.asm32_syscall_int80.readahead
INTERN_WEAK_FUNCTION(__x86_asm32_int80_readahead)
	.cfi_startproc simple
	.cfi_personality 0, x86_syscall_personality_asm32_int80
	.cfi_lsda 0, 0xe1
	.cfi_iret_signal_frame
	.cfi_def_cfa %esp, 0
	pushl_cfi %ds
	.cfi_restore_iret_ds_or_offset -4
	pushl_cfi %es
	.cfi_restore_iret_es_or_offset -8
	pushl_cfi %fs
	.cfi_restore_iret_fs_or_offset -12
	movw   $(SEGMENT_USER_DATA_RPL), %ax
	movw   %ax, %ds
	movw   %ax, %es
	movw   $(SEGMENT_KERNEL_FSBASE), %ax
	movw   %ax, %fs
	pushl_cfi_r %esi  /* Arg #3 */
	pushl_cfi_r %edx  /* Arg #2 */
	pushl_cfi_r %ecx  /* Arg #1 */
	pushl_cfi_r %ebx  /* Arg #0 */
	EXTERN(sys_readahead)
	call   sys_readahead
	popl_cfi_r %ebx
	popl_cfi_r %ecx
	popl_cfi_r %edx
	popl_cfi_r %esi
	popl_cfi %fs
	.cfi_restore_iret_fs
	popl_cfi %es
	.cfi_restore_iret_es
	popl_cfi %ds
	.cfi_restore_iret_ds
	iret
	.cfi_endproc
END(__x86_asm32_int80_readahead)

/* @param: flags: One of `0', `XATTR_CREATE' or `XATTR_REPLACE' */
/* errno_t setxattr(char const *path, char const *name, void const *buf, size_t bufsize, syscall_ulong_t flags) */
.section .text.x86.asm32_syscall_int80.setxattr
INTERN_WEAK_FUNCTION(__x86_asm32_int80_setxattr)
	.cfi_startproc simple
	.cfi_personality 0, x86_syscall_personality_asm32_int80
	.cfi_lsda 0, 0xe2
	.cfi_iret_signal_frame
	.cfi_def_cfa %esp, 0
	pushl_cfi %ds
	.cfi_restore_iret_ds_or_offset -4
	pushl_cfi %es
	.cfi_restore_iret_es_or_offset -8
	pushl_cfi %fs
	.cfi_restore_iret_fs_or_offset -12
	movw   $(SEGMENT_USER_DATA_RPL), %ax
	movw   %ax, %ds
	movw   %ax, %es
	movw   $(SEGMENT_KERNEL_FSBASE), %ax
	movw   %ax, %fs
	pushl_cfi_r %edi  /* Arg #4 */
	pushl_cfi_r %esi  /* Arg #3 */
	pushl_cfi_r %edx  /* Arg #2 */
	pushl_cfi_r %ecx  /* Arg #1 */
	pushl_cfi_r %ebx  /* Arg #0 */
	EXTERN(sys_setxattr)
	call   sys_setxattr
	popl_cfi_r %ebx
	popl_cfi_r %ecx
	popl_cfi_r %edx
	addl   $(8), %esp
	.cfi_adjust_cfa_offset -8
	popl_cfi %fs
	.cfi_restore_iret_fs
	popl_cfi %es
	.cfi_restore_iret_es
	popl_cfi %ds
	.cfi_restore_iret_ds
	iret
	.cfi_endproc
END(__x86_asm32_int80_setxattr)

/* @param: flags: One of `0', `XATTR_CREATE' or `XATTR_REPLACE' */
/* errno_t lsetxattr(char const *path, char const *name, void const *buf, size_t bufsize, syscall_ulong_t flags) */
.section .text.x86.asm32_syscall_int80.lsetxattr
INTERN_WEAK_FUNCTION(__x86_asm32_int80_lsetxattr)
	.cfi_startproc simple
	.cfi_personality 0, x86_syscall_personality_asm32_int80
	.cfi_lsda 0, 0xe3
	.cfi_iret_signal_frame
	.cfi_def_cfa %esp, 0
	pushl_cfi %ds
	.cfi_restore_iret_ds_or_offset -4
	pushl_cfi %es
	.cfi_restore_iret_es_or_offset -8
	pushl_cfi %fs
	.cfi_restore_iret_fs_or_offset -12
	movw   $(SEGMENT_USER_DATA_RPL), %ax
	movw   %ax, %ds
	movw   %ax, %es
	movw   $(SEGMENT_KERNEL_FSBASE), %ax
	movw   %ax, %fs
	pushl_cfi_r %edi  /* Arg #4 */
	pushl_cfi_r %esi  /* Arg #3 */
	pushl_cfi_r %edx  /* Arg #2 */
	pushl_cfi_r %ecx  /* Arg #1 */
	pushl_cfi_r %ebx  /* Arg #0 */
	EXTERN(sys_lsetxattr)
	call   sys_lsetxattr
	popl_cfi_r %ebx
	popl_cfi_r %ecx
	popl_cfi_r %edx
	addl   $(8), %esp
	.cfi_adjust_cfa_offset -8
	popl_cfi %fs
	.cfi_restore_iret_fs
	popl_cfi %es
	.cfi_restore_iret_es
	popl_cfi %ds
	.cfi_restore_iret_ds
	iret
	.cfi_endproc
END(__x86_asm32_int80_lsetxattr)

/* @param: flags: One of `0', `XATTR_CREATE' or `XATTR_REPLACE' */
/* errno_t fsetxattr(fd_t fd, char const *name, void const *buf, size_t bufsize, syscall_ulong_t flags) */
.section .text.x86.asm32_syscall_int80.fsetxattr
INTERN_WEAK_FUNCTION(__x86_asm32_int80_fsetxattr)
	.cfi_startproc simple
	.cfi_personality 0, x86_syscall_personality_asm32_int80
	.cfi_lsda 0, 0xe4
	.cfi_iret_signal_frame
	.cfi_def_cfa %esp, 0
	pushl_cfi %ds
	.cfi_restore_iret_ds_or_offset -4
	pushl_cfi %es
	.cfi_restore_iret_es_or_offset -8
	pushl_cfi %fs
	.cfi_restore_iret_fs_or_offset -12
	movw   $(SEGMENT_USER_DATA_RPL), %ax
	movw   %ax, %ds
	movw   %ax, %es
	movw   $(SEGMENT_KERNEL_FSBASE), %ax
	movw   %ax, %fs
	pushl_cfi_r %edi  /* Arg #4 */
	pushl_cfi_r %esi  /* Arg #3 */
	pushl_cfi_r %edx  /* Arg #2 */
	pushl_cfi_r %ecx  /* Arg #1 */
	pushl_cfi_r %ebx  /* Arg #0 */
	EXTERN(sys_fsetxattr)
	call   sys_fsetxattr
	popl_cfi_r %ebx
	popl_cfi_r %ecx
	popl_cfi_r %edx
	addl   $(8), %esp
	.cfi_adjust_cfa_offset -8
	popl_cfi %fs
	.cfi_restore_iret_fs
	popl_cfi %es
	.cfi_restore_iret_es
	popl_cfi %ds
	.cfi_restore_iret_ds
	iret
	.cfi_endproc
END(__x86_asm32_int80_fsetxattr)

/* ssize_t getxattr(char const *path, char const *name, void *buf, size_t bufsize) */
.section .text.x86.asm32_syscall_int80.getxattr
INTERN_WEAK_FUNCTION(__x86_asm32_int80_getxattr)
	.cfi_startproc simple
	.cfi_personality 0, x86_syscall_personality_asm32_int80
	.cfi_lsda 0, 0xe5
	.cfi_iret_signal_frame
	.cfi_def_cfa %esp, 0
	pushl_cfi %ds
	.cfi_restore_iret_ds_or_offset -4
	pushl_cfi %es
	.cfi_restore_iret_es_or_offset -8
	pushl_cfi %fs
	.cfi_restore_iret_fs_or_offset -12
	movw   $(SEGMENT_USER_DATA_RPL), %ax
	movw   %ax, %ds
	movw   %ax, %es
	movw   $(SEGMENT_KERNEL_FSBASE), %ax
	movw   %ax, %fs
	pushl_cfi_r %esi  /* Arg #3 */
	pushl_cfi_r %edx  /* Arg #2 */
	pushl_cfi_r %ecx  /* Arg #1 */
	pushl_cfi_r %ebx  /* Arg #0 */
	EXTERN(sys_getxattr)
	call   sys_getxattr
	popl_cfi_r %ebx
	popl_cfi_r %ecx
	popl_cfi_r %edx
	popl_cfi_r %esi
	popl_cfi %fs
	.cfi_restore_iret_fs
	popl_cfi %es
	.cfi_restore_iret_es
	popl_cfi %ds
	.cfi_restore_iret_ds
	iret
	.cfi_endproc
END(__x86_asm32_int80_getxattr)

/* ssize_t lgetxattr(char const *path, char const *name, void *buf, size_t bufsize) */
.section .text.x86.asm32_syscall_int80.lgetxattr
INTERN_WEAK_FUNCTION(__x86_asm32_int80_lgetxattr)
	.cfi_startproc simple
	.cfi_personality 0, x86_syscall_personality_asm32_int80
	.cfi_lsda 0, 0xe6
	.cfi_iret_signal_frame
	.cfi_def_cfa %esp, 0
	pushl_cfi %ds
	.cfi_restore_iret_ds_or_offset -4
	pushl_cfi %es
	.cfi_restore_iret_es_or_offset -8
	pushl_cfi %fs
	.cfi_restore_iret_fs_or_offset -12
	movw   $(SEGMENT_USER_DATA_RPL), %ax
	movw   %ax, %ds
	movw   %ax, %es
	movw   $(SEGMENT_KERNEL_FSBASE), %ax
	movw   %ax, %fs
	pushl_cfi_r %esi  /* Arg #3 */
	pushl_cfi_r %edx  /* Arg #2 */
	pushl_cfi_r %ecx  /* Arg #1 */
	pushl_cfi_r %ebx  /* Arg #0 */
	EXTERN(sys_lgetxattr)
	call   sys_lgetxattr
	popl_cfi_r %ebx
	popl_cfi_r %ecx
	popl_cfi_r %edx
	popl_cfi_r %esi
	popl_cfi %fs
	.cfi_restore_iret_fs
	popl_cfi %es
	.cfi_restore_iret_es
	popl_cfi %ds
	.cfi_restore_iret_ds
	iret
	.cfi_endproc
END(__x86_asm32_int80_lgetxattr)

/* ssize_t fgetxattr(fd_t fd, char const *name, void *buf, size_t bufsize) */
.section .text.x86.asm32_syscall_int80.fgetxattr
INTERN_WEAK_FUNCTION(__x86_asm32_int80_fgetxattr)
	.cfi_startproc simple
	.cfi_personality 0, x86_syscall_personality_asm32_int80
	.cfi_lsda 0, 0xe7
	.cfi_iret_signal_frame
	.cfi_def_cfa %esp, 0
	pushl_cfi %ds
	.cfi_restore_iret_ds_or_offset -4
	pushl_cfi %es
	.cfi_restore_iret_es_or_offset -8
	pushl_cfi %fs
	.cfi_restore_iret_fs_or_offset -12
	movw   $(SEGMENT_USER_DATA_RPL), %ax
	movw   %ax, %ds
	movw   %ax, %es
	movw   $(SEGMENT_KERNEL_FSBASE), %ax
	movw   %ax, %fs
	pushl_cfi_r %esi  /* Arg #3 */
	pushl_cfi_r %edx  /* Arg #2 */
	pushl_cfi_r %ecx  /* Arg #1 */
	pushl_cfi_r %ebx  /* Arg #0 */
	EXTERN(sys_fgetxattr)
	call   sys_fgetxattr
	popl_cfi_r %ebx
	popl_cfi_r %ecx
	popl_cfi_r %edx
	popl_cfi_r %esi
	popl_cfi %fs
	.cfi_restore_iret_fs
	popl_cfi %es
	.cfi_restore_iret_es
	popl_cfi %ds
	.cfi_restore_iret_ds
	iret
	.cfi_endproc
END(__x86_asm32_int80_fgetxattr)

/* ssize_t listxattr(char const *path, char *listbuf, size_t listbufsize) */
.section .text.x86.asm32_syscall_int80.listxattr
INTERN_WEAK_FUNCTION(__x86_asm32_int80_listxattr)
	.cfi_startproc simple
	.cfi_personality 0, x86_syscall_personality_asm32_int80
	.cfi_lsda 0, 0xe8
	.cfi_iret_signal_frame
	.cfi_def_cfa %esp, 0
	pushl_cfi %ds
	.cfi_restore_iret_ds_or_offset -4
	pushl_cfi %es
	.cfi_restore_iret_es_or_offset -8
	pushl_cfi %fs
	.cfi_restore_iret_fs_or_offset -12
	movw   $(SEGMENT_USER_DATA_RPL), %ax
	movw   %ax, %ds
	movw   %ax, %es
	movw   $(SEGMENT_KERNEL_FSBASE), %ax
	movw   %ax, %fs
	pushl_cfi_r %edx  /* Arg #2 */
	pushl_cfi_r %ecx  /* Arg #1 */
	pushl_cfi_r %ebx  /* Arg #0 */
	EXTERN(sys_listxattr)
	call   sys_listxattr
	popl_cfi_r %ebx
	popl_cfi_r %ecx
	popl_cfi_r %edx
	popl_cfi %fs
	.cfi_restore_iret_fs
	popl_cfi %es
	.cfi_restore_iret_es
	popl_cfi %ds
	.cfi_restore_iret_ds
	iret
	.cfi_endproc
END(__x86_asm32_int80_listxattr)

/* ssize_t llistxattr(char const *path, char *listbuf, size_t listbufsize) */
.section .text.x86.asm32_syscall_int80.llistxattr
INTERN_WEAK_FUNCTION(__x86_asm32_int80_llistxattr)
	.cfi_startproc simple
	.cfi_personality 0, x86_syscall_personality_asm32_int80
	.cfi_lsda 0, 0xe9
	.cfi_iret_signal_frame
	.cfi_def_cfa %esp, 0
	pushl_cfi %ds
	.cfi_restore_iret_ds_or_offset -4
	pushl_cfi %es
	.cfi_restore_iret_es_or_offset -8
	pushl_cfi %fs
	.cfi_restore_iret_fs_or_offset -12
	movw   $(SEGMENT_USER_DATA_RPL), %ax
	movw   %ax, %ds
	movw   %ax, %es
	movw   $(SEGMENT_KERNEL_FSBASE), %ax
	movw   %ax, %fs
	pushl_cfi_r %edx  /* Arg #2 */
	pushl_cfi_r %ecx  /* Arg #1 */
	pushl_cfi_r %ebx  /* Arg #0 */
	EXTERN(sys_llistxattr)
	call   sys_llistxattr
	popl_cfi_r %ebx
	popl_cfi_r %ecx
	popl_cfi_r %edx
	popl_cfi %fs
	.cfi_restore_iret_fs
	popl_cfi %es
	.cfi_restore_iret_es
	popl_cfi %ds
	.cfi_restore_iret_ds
	iret
	.cfi_endproc
END(__x86_asm32_int80_llistxattr)

/* ssize_t flistxattr(fd_t fd, char *listbuf, size_t listbufsize) */
.section .text.x86.asm32_syscall_int80.flistxattr
INTERN_WEAK_FUNCTION(__x86_asm32_int80_flistxattr)
	.cfi_startproc simple
	.cfi_personality 0, x86_syscall_personality_asm32_int80
	.cfi_lsda 0, 0xea
	.cfi_iret_signal_frame
	.cfi_def_cfa %esp, 0
	pushl_cfi %ds
	.cfi_restore_iret_ds_or_offset -4
	pushl_cfi %es
	.cfi_restore_iret_es_or_offset -8
	pushl_cfi %fs
	.cfi_restore_iret_fs_or_offset -12
	movw   $(SEGMENT_USER_DATA_RPL), %ax
	movw   %ax, %ds
	movw   %ax, %es
	movw   $(SEGMENT_KERNEL_FSBASE), %ax
	movw   %ax, %fs
	pushl_cfi_r %edx  /* Arg #2 */
	pushl_cfi_r %ecx  /* Arg #1 */
	pushl_cfi_r %ebx  /* Arg #0 */
	EXTERN(sys_flistxattr)
	call   sys_flistxattr
	popl_cfi_r %ebx
	popl_cfi_r %ecx
	popl_cfi_r %edx
	popl_cfi %fs
	.cfi_restore_iret_fs
	popl_cfi %es
	.cfi_restore_iret_es
	popl_cfi %ds
	.cfi_restore_iret_ds
	iret
	.cfi_endproc
END(__x86_asm32_int80_flistxattr)

/* errno_t removexattr(char const *path, char const *name) */
.section .text.x86.asm32_syscall_int80.removexattr
INTERN_WEAK_FUNCTION(__x86_asm32_int80_removexattr)
	.cfi_startproc simple
	.cfi_personality 0, x86_syscall_personality_asm32_int80
	.cfi_lsda 0, 0xeb
	.cfi_iret_signal_frame
	.cfi_def_cfa %esp, 0
	pushl_cfi %ds
	.cfi_restore_iret_ds_or_offset -4
	pushl_cfi %es
	.cfi_restore_iret_es_or_offset -8
	pushl_cfi %fs
	.cfi_restore_iret_fs_or_offset -12
	movw   $(SEGMENT_USER_DATA_RPL), %ax
	movw   %ax, %ds
	movw   %ax, %es
	movw   $(SEGMENT_KERNEL_FSBASE), %ax
	movw   %ax, %fs
	pushl_cfi_r %edx
	pushl_cfi_r %ecx  /* Arg #1 */
	pushl_cfi_r %ebx  /* Arg #0 */
	EXTERN(sys_removexattr)
	call   sys_removexattr
	popl_cfi_r %ebx
	popl_cfi_r %ecx
	popl_cfi_r %edx
	popl_cfi %fs
	.cfi_restore_iret_fs
	popl_cfi %es
	.cfi_restore_iret_es
	popl_cfi %ds
	.cfi_restore_iret_ds
	iret
	.cfi_endproc
END(__x86_asm32_int80_removexattr)

/* errno_t lremovexattr(char const *path, char const *name) */
.section .text.x86.asm32_syscall_int80.lremovexattr
INTERN_WEAK_FUNCTION(__x86_asm32_int80_lremovexattr)
	.cfi_startproc simple
	.cfi_personality 0, x86_syscall_personality_asm32_int80
	.cfi_lsda 0, 0xec
	.cfi_iret_signal_frame
	.cfi_def_cfa %esp, 0
	pushl_cfi %ds
	.cfi_restore_iret_ds_or_offset -4
	pushl_cfi %es
	.cfi_restore_iret_es_or_offset -8
	pushl_cfi %fs
	.cfi_restore_iret_fs_or_offset -12
	movw   $(SEGMENT_USER_DATA_RPL), %ax
	movw   %ax, %ds
	movw   %ax, %es
	movw   $(SEGMENT_KERNEL_FSBASE), %ax
	movw   %ax, %fs
	pushl_cfi_r %edx
	pushl_cfi_r %ecx  /* Arg #1 */
	pushl_cfi_r %ebx  /* Arg #0 */
	EXTERN(sys_lremovexattr)
	call   sys_lremovexattr
	popl_cfi_r %ebx
	popl_cfi_r %ecx
	popl_cfi_r %edx
	popl_cfi %fs
	.cfi_restore_iret_fs
	popl_cfi %es
	.cfi_restore_iret_es
	popl_cfi %ds
	.cfi_restore_iret_ds
	iret
	.cfi_endproc
END(__x86_asm32_int80_lremovexattr)

/* errno_t fremovexattr(fd_t fd, char const *name) */
.section .text.x86.asm32_syscall_int80.fremovexattr
INTERN_WEAK_FUNCTION(__x86_asm32_int80_fremovexattr)
	.cfi_startproc simple
	.cfi_personality 0, x86_syscall_personality_asm32_int80
	.cfi_lsda 0, 0xed
	.cfi_iret_signal_frame
	.cfi_def_cfa %esp, 0
	pushl_cfi %ds
	.cfi_restore_iret_ds_or_offset -4
	pushl_cfi %es
	.cfi_restore_iret_es_or_offset -8
	pushl_cfi %fs
	.cfi_restore_iret_fs_or_offset -12
	movw   $(SEGMENT_USER_DATA_RPL), %ax
	movw   %ax, %ds
	movw   %ax, %es
	movw   $(SEGMENT_KERNEL_FSBASE), %ax
	movw   %ax, %fs
	pushl_cfi_r %edx
	pushl_cfi_r %ecx  /* Arg #1 */
	pushl_cfi_r %ebx  /* Arg #0 */
	EXTERN(sys_fremovexattr)
	call   sys_fremovexattr
	popl_cfi_r %ebx
	popl_cfi_r %ecx
	popl_cfi_r %edx
	popl_cfi %fs
	.cfi_restore_iret_fs
	popl_cfi %es
	.cfi_restore_iret_es
	popl_cfi %ds
	.cfi_restore_iret_ds
	iret
	.cfi_endproc
END(__x86_asm32_int80_fremovexattr)

/* errno_t tkill(pid_t tid, signo_t signo) */
.section .text.x86.asm32_syscall_int80.tkill
INTERN_WEAK_FUNCTION(__x86_asm32_int80_tkill)
	.cfi_startproc simple
	.cfi_personality 0, x86_syscall_personality_asm32_int80
	.cfi_lsda 0, 0xee
	.cfi_iret_signal_frame
	.cfi_def_cfa %esp, 0
	pushl_cfi %ds
	.cfi_restore_iret_ds_or_offset -4
	pushl_cfi %es
	.cfi_restore_iret_es_or_offset -8
	pushl_cfi %fs
	.cfi_restore_iret_fs_or_offset -12
	movw   $(SEGMENT_USER_DATA_RPL), %ax
	movw   %ax, %ds
	movw   %ax, %es
	movw   $(SEGMENT_KERNEL_FSBASE), %ax
	movw   %ax, %fs
	pushl_cfi_r %edx
	pushl_cfi_r %ecx  /* Arg #1 */
	pushl_cfi_r %ebx  /* Arg #0 */
	EXTERN(sys_tkill)
	call   sys_tkill
	popl_cfi_r %ebx
	popl_cfi_r %ecx
	popl_cfi_r %edx
	popl_cfi %fs
	.cfi_restore_iret_fs
	popl_cfi %es
	.cfi_restore_iret_es
	popl_cfi %ds
	.cfi_restore_iret_ds
	iret
	.cfi_endproc
END(__x86_asm32_int80_tkill)

/* Read up to `num_bytes' from `infd', and write that data to `outfd'
 * Files must be opened with the relevant access permissions (same as
 * would be enforced by `read(2)' and `write(2)')
 * When `pin_offset != NULL', the pointed-to location is used to track
 * the read-position in `infd'. Note that in the event that writing to
 * this address faults, data may  have still been written to  `outfd',
 * so be sure to have this point to writable memory.
 * @param: outfd:      Output file descriptor
 * @param: infd:       Input file descriptor
 * @param: pin_offset: If non-NULL, position from which to start reading,
 *                     and updated to reflect  how much could be  copied.
 * @param: num_bytes:  The max number of bytes to transfer
 * @return: * :        The actual number of bytes transferred */
/* ssize_t sendfile64(fd_t outfd, fd_t infd, __ULONG64_TYPE__ *pin_offset, size_t num_bytes) */
.section .text.x86.asm32_syscall_int80.sendfile64
INTERN_WEAK_FUNCTION(__x86_asm32_int80_sendfile64)
	.cfi_startproc simple
	.cfi_personality 0, x86_syscall_personality_asm32_int80
	.cfi_lsda 0, 0xef
	.cfi_iret_signal_frame
	.cfi_def_cfa %esp, 0
	pushl_cfi %ds
	.cfi_restore_iret_ds_or_offset -4
	pushl_cfi %es
	.cfi_restore_iret_es_or_offset -8
	pushl_cfi %fs
	.cfi_restore_iret_fs_or_offset -12
	movw   $(SEGMENT_USER_DATA_RPL), %ax
	movw   %ax, %ds
	movw   %ax, %es
	movw   $(SEGMENT_KERNEL_FSBASE), %ax
	movw   %ax, %fs
	pushl_cfi_r %esi  /* Arg #3 */
	pushl_cfi_r %edx  /* Arg #2 */
	pushl_cfi_r %ecx  /* Arg #1 */
	pushl_cfi_r %ebx  /* Arg #0 */
	EXTERN(sys_sendfile64)
	call   sys_sendfile64
	popl_cfi_r %ebx
	popl_cfi_r %ecx
	popl_cfi_r %edx
	popl_cfi_r %esi
	popl_cfi %fs
	.cfi_restore_iret_fs
	popl_cfi %es
	.cfi_restore_iret_es
	popl_cfi %ds
	.cfi_restore_iret_ds
	iret
	.cfi_endproc
END(__x86_asm32_int80_sendfile64)

/* @param: futex_op: One of `FUTEX_*' from <linux/futex.h> */
/* syscall_slong_t futex(uint32_t *uaddr, syscall_ulong_t futex_op, uint32_t val, struct timespecx32 const *timeout_or_val2, uint32_t *uaddr2, uint32_t val3) */
.section .text.x86.asm32_syscall_int80.futex
INTERN_WEAK_FUNCTION(__x86_asm32_int80_futex)
	.cfi_startproc simple
	.cfi_personality 0, x86_syscall_personality_asm32_int80
	.cfi_lsda 0, 0xf0
	.cfi_iret_signal_frame
	.cfi_def_cfa %esp, 0
	pushl_cfi %ds
	.cfi_restore_iret_ds_or_offset -4
	pushl_cfi %es
	.cfi_restore_iret_es_or_offset -8
	pushl_cfi %fs
	.cfi_restore_iret_fs_or_offset -12
	movw   $(SEGMENT_USER_DATA_RPL), %ax
	movw   %ax, %ds
	movw   %ax, %es
	movw   $(SEGMENT_KERNEL_FSBASE), %ax
	movw   %ax, %fs
	pushl_cfi_r %ebp  /* Arg #5 */
	pushl_cfi_r %edi  /* Arg #4 */
	pushl_cfi_r %esi  /* Arg #3 */
	pushl_cfi_r %edx  /* Arg #2 */
	pushl_cfi_r %ecx  /* Arg #1 */
	pushl_cfi_r %ebx  /* Arg #0 */
	EXTERN(sys_futex)
	call   sys_futex
	popl_cfi_r %ebx
	popl_cfi_r %ecx
	popl_cfi_r %edx
	addl   $(12), %esp
	.cfi_adjust_cfa_offset -12
	popl_cfi %fs
	.cfi_restore_iret_fs
	popl_cfi %es
	.cfi_restore_iret_es
	popl_cfi %ds
	.cfi_restore_iret_ds
	iret
	.cfi_endproc
END(__x86_asm32_int80_futex)

/* errno_t sched_setaffinity(pid_t pid, size_t cpusetsize, struct __cpu_set_struct const *cpuset) */
.section .text.x86.asm32_syscall_int80.sched_setaffinity
INTERN_WEAK_FUNCTION(__x86_asm32_int80_sched_setaffinity)
	.cfi_startproc simple
	.cfi_personality 0, x86_syscall_personality_asm32_int80
	.cfi_lsda 0, 0xf1
	.cfi_iret_signal_frame
	.cfi_def_cfa %esp, 0
	pushl_cfi %ds
	.cfi_restore_iret_ds_or_offset -4
	pushl_cfi %es
	.cfi_restore_iret_es_or_offset -8
	pushl_cfi %fs
	.cfi_restore_iret_fs_or_offset -12
	movw   $(SEGMENT_USER_DATA_RPL), %ax
	movw   %ax, %ds
	movw   %ax, %es
	movw   $(SEGMENT_KERNEL_FSBASE), %ax
	movw   %ax, %fs
	pushl_cfi_r %edx  /* Arg #2 */
	pushl_cfi_r %ecx  /* Arg #1 */
	pushl_cfi_r %ebx  /* Arg #0 */
	EXTERN(sys_sched_setaffinity)
	call   sys_sched_setaffinity
	popl_cfi_r %ebx
	popl_cfi_r %ecx
	popl_cfi_r %edx
	popl_cfi %fs
	.cfi_restore_iret_fs
	popl_cfi %es
	.cfi_restore_iret_es
	popl_cfi %ds
	.cfi_restore_iret_ds
	iret
	.cfi_endproc
END(__x86_asm32_int80_sched_setaffinity)

/* errno_t sched_getaffinity(pid_t pid, size_t cpusetsize, struct __cpu_set_struct *cpuset) */
.section .text.x86.asm32_syscall_int80.sched_getaffinity
INTERN_WEAK_FUNCTION(__x86_asm32_int80_sched_getaffinity)
	.cfi_startproc simple
	.cfi_personality 0, x86_syscall_personality_asm32_int80
	.cfi_lsda 0, 0xf2
	.cfi_iret_signal_frame
	.cfi_def_cfa %esp, 0
	pushl_cfi %ds
	.cfi_restore_iret_ds_or_offset -4
	pushl_cfi %es
	.cfi_restore_iret_es_or_offset -8
	pushl_cfi %fs
	.cfi_restore_iret_fs_or_offset -12
	movw   $(SEGMENT_USER_DATA_RPL), %ax
	movw   %ax, %ds
	movw   %ax, %es
	movw   $(SEGMENT_KERNEL_FSBASE), %ax
	movw   %ax, %fs
	pushl_cfi_r %edx  /* Arg #2 */
	pushl_cfi_r %ecx  /* Arg #1 */
	pushl_cfi_r %ebx  /* Arg #0 */
	EXTERN(sys_sched_getaffinity)
	call   sys_sched_getaffinity
	popl_cfi_r %ebx
	popl_cfi_r %ecx
	popl_cfi_r %edx
	popl_cfi %fs
	.cfi_restore_iret_fs
	popl_cfi %es
	.cfi_restore_iret_es
	popl_cfi %ds
	.cfi_restore_iret_ds
	iret
	.cfi_endproc
END(__x86_asm32_int80_sched_getaffinity)

/* errno_t set_thread_area(int TODO_PROTOTYPE) */
.section .text.x86.asm32_syscall_int80.set_thread_area
INTERN_WEAK_FUNCTION(__x86_asm32_int80_set_thread_area)
	.cfi_startproc simple
	.cfi_personality 0, x86_syscall_personality_asm32_int80
	.cfi_lsda 0, 0xf3
	.cfi_iret_signal_frame
	.cfi_def_cfa %esp, 0
	pushl_cfi %ds
	.cfi_restore_iret_ds_or_offset -4
	pushl_cfi %es
	.cfi_restore_iret_es_or_offset -8
	pushl_cfi %fs
	.cfi_restore_iret_fs_or_offset -12
	movw   $(SEGMENT_USER_DATA_RPL), %ax
	movw   %ax, %ds
	movw   %ax, %es
	movw   $(SEGMENT_KERNEL_FSBASE), %ax
	movw   %ax, %fs
	pushl_cfi_r %ecx
	pushl_cfi_r %edx
	pushl_cfi_r %ebx  /* Arg #0 */
	EXTERN(sys_set_thread_area)
	call   sys_set_thread_area
	popl_cfi_r %ebx
	popl_cfi_r %edx
	popl_cfi_r %ecx
	popl_cfi %fs
	.cfi_restore_iret_fs
	popl_cfi %es
	.cfi_restore_iret_es
	popl_cfi %ds
	.cfi_restore_iret_ds
	iret
	.cfi_endproc
END(__x86_asm32_int80_set_thread_area)

/* errno_t get_thread_area(int TODO_PROTOTYPE) */
.section .text.x86.asm32_syscall_int80.get_thread_area
INTERN_WEAK_FUNCTION(__x86_asm32_int80_get_thread_area)
	.cfi_startproc simple
	.cfi_personality 0, x86_syscall_personality_asm32_int80
	.cfi_lsda 0, 0xf4
	.cfi_iret_signal_frame
	.cfi_def_cfa %esp, 0
	pushl_cfi %ds
	.cfi_restore_iret_ds_or_offset -4
	pushl_cfi %es
	.cfi_restore_iret_es_or_offset -8
	pushl_cfi %fs
	.cfi_restore_iret_fs_or_offset -12
	movw   $(SEGMENT_USER_DATA_RPL), %ax
	movw   %ax, %ds
	movw   %ax, %es
	movw   $(SEGMENT_KERNEL_FSBASE), %ax
	movw   %ax, %fs
	pushl_cfi_r %ecx
	pushl_cfi_r %edx
	pushl_cfi_r %ebx  /* Arg #0 */
	EXTERN(sys_get_thread_area)
	call   sys_get_thread_area
	popl_cfi_r %ebx
	popl_cfi_r %edx
	popl_cfi_r %ecx
	popl_cfi %fs
	.cfi_restore_iret_fs
	popl_cfi %es
	.cfi_restore_iret_es
	popl_cfi %ds
	.cfi_restore_iret_ds
	iret
	.cfi_endproc
END(__x86_asm32_int80_get_thread_area)

/* errno_t io_setup(int TODO_PROTOTYPE) */
.section .text.x86.asm32_syscall_int80.io_setup
INTERN_WEAK_FUNCTION(__x86_asm32_int80_io_setup)
	.cfi_startproc simple
	.cfi_personality 0, x86_syscall_personality_asm32_int80
	.cfi_lsda 0, 0xf5
	.cfi_iret_signal_frame
	.cfi_def_cfa %esp, 0
	pushl_cfi %ds
	.cfi_restore_iret_ds_or_offset -4
	pushl_cfi %es
	.cfi_restore_iret_es_or_offset -8
	pushl_cfi %fs
	.cfi_restore_iret_fs_or_offset -12
	movw   $(SEGMENT_USER_DATA_RPL), %ax
	movw   %ax, %ds
	movw   %ax, %es
	movw   $(SEGMENT_KERNEL_FSBASE), %ax
	movw   %ax, %fs
	pushl_cfi_r %ecx
	pushl_cfi_r %edx
	pushl_cfi_r %ebx  /* Arg #0 */
	EXTERN(sys_io_setup)
	call   sys_io_setup
	popl_cfi_r %ebx
	popl_cfi_r %edx
	popl_cfi_r %ecx
	popl_cfi %fs
	.cfi_restore_iret_fs
	popl_cfi %es
	.cfi_restore_iret_es
	popl_cfi %ds
	.cfi_restore_iret_ds
	iret
	.cfi_endproc
END(__x86_asm32_int80_io_setup)

/* errno_t io_destroy(int TODO_PROTOTYPE) */
.section .text.x86.asm32_syscall_int80.io_destroy
INTERN_WEAK_FUNCTION(__x86_asm32_int80_io_destroy)
	.cfi_startproc simple
	.cfi_personality 0, x86_syscall_personality_asm32_int80
	.cfi_lsda 0, 0xf6
	.cfi_iret_signal_frame
	.cfi_def_cfa %esp, 0
	pushl_cfi %ds
	.cfi_restore_iret_ds_or_offset -4
	pushl_cfi %es
	.cfi_restore_iret_es_or_offset -8
	pushl_cfi %fs
	.cfi_restore_iret_fs_or_offset -12
	movw   $(SEGMENT_USER_DATA_RPL), %ax
	movw   %ax, %ds
	movw   %ax, %es
	movw   $(SEGMENT_KERNEL_FSBASE), %ax
	movw   %ax, %fs
	pushl_cfi_r %ecx
	pushl_cfi_r %edx
	pushl_cfi_r %ebx  /* Arg #0 */
	EXTERN(sys_io_destroy)
	call   sys_io_destroy
	popl_cfi_r %ebx
	popl_cfi_r %edx
	popl_cfi_r %ecx
	popl_cfi %fs
	.cfi_restore_iret_fs
	popl_cfi %es
	.cfi_restore_iret_es
	popl_cfi %ds
	.cfi_restore_iret_ds
	iret
	.cfi_endproc
END(__x86_asm32_int80_io_destroy)

/* errno_t io_getevents(int TODO_PROTOTYPE) */
.section .text.x86.asm32_syscall_int80.io_getevents
INTERN_WEAK_FUNCTION(__x86_asm32_int80_io_getevents)
	.cfi_startproc simple
	.cfi_personality 0, x86_syscall_personality_asm32_int80
	.cfi_lsda 0, 0xf7
	.cfi_iret_signal_frame
	.cfi_def_cfa %esp, 0
	pushl_cfi %ds
	.cfi_restore_iret_ds_or_offset -4
	pushl_cfi %es
	.cfi_restore_iret_es_or_offset -8
	pushl_cfi %fs
	.cfi_restore_iret_fs_or_offset -12
	movw   $(SEGMENT_USER_DATA_RPL), %ax
	movw   %ax, %ds
	movw   %ax, %es
	movw   $(SEGMENT_KERNEL_FSBASE), %ax
	movw   %ax, %fs
	pushl_cfi_r %ecx
	pushl_cfi_r %edx
	pushl_cfi_r %ebx  /* Arg #0 */
	EXTERN(sys_io_getevents)
	call   sys_io_getevents
	popl_cfi_r %ebx
	popl_cfi_r %edx
	popl_cfi_r %ecx
	popl_cfi %fs
	.cfi_restore_iret_fs
	popl_cfi %es
	.cfi_restore_iret_es
	popl_cfi %ds
	.cfi_restore_iret_ds
	iret
	.cfi_endproc
END(__x86_asm32_int80_io_getevents)

/* errno_t io_submit(int TODO_PROTOTYPE) */
.section .text.x86.asm32_syscall_int80.io_submit
INTERN_WEAK_FUNCTION(__x86_asm32_int80_io_submit)
	.cfi_startproc simple
	.cfi_personality 0, x86_syscall_personality_asm32_int80
	.cfi_lsda 0, 0xf8
	.cfi_iret_signal_frame
	.cfi_def_cfa %esp, 0
	pushl_cfi %ds
	.cfi_restore_iret_ds_or_offset -4
	pushl_cfi %es
	.cfi_restore_iret_es_or_offset -8
	pushl_cfi %fs
	.cfi_restore_iret_fs_or_offset -12
	movw   $(SEGMENT_USER_DATA_RPL), %ax
	movw   %ax, %ds
	movw   %ax, %es
	movw   $(SEGMENT_KERNEL_FSBASE), %ax
	movw   %ax, %fs
	pushl_cfi_r %ecx
	pushl_cfi_r %edx
	pushl_cfi_r %ebx  /* Arg #0 */
	EXTERN(sys_io_submit)
	call   sys_io_submit
	popl_cfi_r %ebx
	popl_cfi_r %edx
	popl_cfi_r %ecx
	popl_cfi %fs
	.cfi_restore_iret_fs
	popl_cfi %es
	.cfi_restore_iret_es
	popl_cfi %ds
	.cfi_restore_iret_ds
	iret
	.cfi_endproc
END(__x86_asm32_int80_io_submit)

/* errno_t io_cancel(int TODO_PROTOTYPE) */
.section .text.x86.asm32_syscall_int80.io_cancel
INTERN_WEAK_FUNCTION(__x86_asm32_int80_io_cancel)
	.cfi_startproc simple
	.cfi_personality 0, x86_syscall_personality_asm32_int80
	.cfi_lsda 0, 0xf9
	.cfi_iret_signal_frame
	.cfi_def_cfa %esp, 0
	pushl_cfi %ds
	.cfi_restore_iret_ds_or_offset -4
	pushl_cfi %es
	.cfi_restore_iret_es_or_offset -8
	pushl_cfi %fs
	.cfi_restore_iret_fs_or_offset -12
	movw   $(SEGMENT_USER_DATA_RPL), %ax
	movw   %ax, %ds
	movw   %ax, %es
	movw   $(SEGMENT_KERNEL_FSBASE), %ax
	movw   %ax, %fs
	pushl_cfi_r %ecx
	pushl_cfi_r %edx
	pushl_cfi_r %ebx  /* Arg #0 */
	EXTERN(sys_io_cancel)
	call   sys_io_cancel
	popl_cfi_r %ebx
	popl_cfi_r %edx
	popl_cfi_r %ecx
	popl_cfi %fs
	.cfi_restore_iret_fs
	popl_cfi %es
	.cfi_restore_iret_es
	popl_cfi %ds
	.cfi_restore_iret_ds
	iret
	.cfi_endproc
END(__x86_asm32_int80_io_cancel)

/* errno_t fadvise64(int TODO_PROTOTYPE) */
.section .text.x86.asm32_syscall_int80.fadvise64
INTERN_WEAK_FUNCTION(__x86_asm32_int80_fadvise64)
	.cfi_startproc simple
	.cfi_personality 0, x86_syscall_personality_asm32_int80
	.cfi_lsda 0, 0xfa
	.cfi_iret_signal_frame
	.cfi_def_cfa %esp, 0
	pushl_cfi %ds
	.cfi_restore_iret_ds_or_offset -4
	pushl_cfi %es
	.cfi_restore_iret_es_or_offset -8
	pushl_cfi %fs
	.cfi_restore_iret_fs_or_offset -12
	movw   $(SEGMENT_USER_DATA_RPL), %ax
	movw   %ax, %ds
	movw   %ax, %es
	movw   $(SEGMENT_KERNEL_FSBASE), %ax
	movw   %ax, %fs
	pushl_cfi_r %ecx
	pushl_cfi_r %edx
	pushl_cfi_r %ebx  /* Arg #0 */
	EXTERN(sys_fadvise64)
	call   sys_fadvise64
	popl_cfi_r %ebx
	popl_cfi_r %edx
	popl_cfi_r %ecx
	popl_cfi %fs
	.cfi_restore_iret_fs
	popl_cfi %es
	.cfi_restore_iret_es
	popl_cfi %ds
	.cfi_restore_iret_ds
	iret
	.cfi_endproc
END(__x86_asm32_int80_fadvise64)

/* Terminate the calling process
 * @param: exit_code: Thread exit code (as returned by `wait(2)') */
/* void exit_group(syscall_ulong_t exit_code) */
.section .text.x86.asm32_syscall_int80.exit_group
INTERN_WEAK_FUNCTION(__x86_asm32_int80_exit_group)
	.cfi_startproc simple
	.cfi_personality 0, x86_syscall_personality_asm32_int80
	.cfi_lsda 0, 0xfc
	.cfi_iret_signal_frame
	.cfi_def_cfa %esp, 0
	pushl_cfi %ds
	.cfi_restore_iret_ds_or_offset -4
	pushl_cfi %es
	.cfi_restore_iret_es_or_offset -8
	pushl_cfi %fs
	.cfi_restore_iret_fs_or_offset -12
	movw   $(SEGMENT_USER_DATA_RPL), %ax
	movw   %ax, %ds
	movw   %ax, %es
	movw   $(SEGMENT_KERNEL_FSBASE), %ax
	movw   %ax, %fs
	pushl_cfi_r %ebx  /* Arg #0 */
	EXTERN(sys_exit_group)
	call   sys_exit_group
	.cfi_endproc
END(__x86_asm32_int80_exit_group)

/* errno_t lookup_dcookie(int TODO_PROTOTYPE) */
.section .text.x86.asm32_syscall_int80.lookup_dcookie
INTERN_WEAK_FUNCTION(__x86_asm32_int80_lookup_dcookie)
	.cfi_startproc simple
	.cfi_personality 0, x86_syscall_personality_asm32_int80
	.cfi_lsda 0, 0xfd
	.cfi_iret_signal_frame
	.cfi_def_cfa %esp, 0
	pushl_cfi %ds
	.cfi_restore_iret_ds_or_offset -4
	pushl_cfi %es
	.cfi_restore_iret_es_or_offset -8
	pushl_cfi %fs
	.cfi_restore_iret_fs_or_offset -12
	movw   $(SEGMENT_USER_DATA_RPL), %ax
	movw   %ax, %ds
	movw   %ax, %es
	movw   $(SEGMENT_KERNEL_FSBASE), %ax
	movw   %ax, %fs
	pushl_cfi_r %ecx
	pushl_cfi_r %edx
	pushl_cfi_r %ebx  /* Arg #0 */
	EXTERN(sys_lookup_dcookie)
	call   sys_lookup_dcookie
	popl_cfi_r %ebx
	popl_cfi_r %edx
	popl_cfi_r %ecx
	popl_cfi %fs
	.cfi_restore_iret_fs
	popl_cfi %es
	.cfi_restore_iret_es
	popl_cfi %ds
	.cfi_restore_iret_ds
	iret
	.cfi_endproc
END(__x86_asm32_int80_lookup_dcookie)

/* >> epoll_create(2)
 * Deprecated alias for `epoll_create1(0)' (the `size' argument is ignored)
 * @return: * : The newly created epoll control descriptor.
 * @return: -1: Error (s.a. `errno') */
/* fd_t epoll_create(syscall_ulong_t size) */
.section .text.x86.asm32_syscall_int80.epoll_create
INTERN_WEAK_FUNCTION(__x86_asm32_int80_epoll_create)
	.cfi_startproc simple
	.cfi_personality 0, x86_syscall_personality_asm32_int80
	.cfi_lsda 0, 0xfe
	.cfi_iret_signal_frame
	.cfi_def_cfa %esp, 0
	pushl_cfi %ds
	.cfi_restore_iret_ds_or_offset -4
	pushl_cfi %es
	.cfi_restore_iret_es_or_offset -8
	pushl_cfi %fs
	.cfi_restore_iret_fs_or_offset -12
	movw   $(SEGMENT_USER_DATA_RPL), %ax
	movw   %ax, %ds
	movw   %ax, %es
	movw   $(SEGMENT_KERNEL_FSBASE), %ax
	movw   %ax, %fs
	pushl_cfi_r %ecx
	pushl_cfi_r %edx
